ccopy_reg
_reconstructor
p0
(cFWCore.ParameterSet.Config
Process
p1
c__builtin__
object
p2
Ntp3
Rp4
(dp5
V_Process__name
p6
VMUONJET
p7
sV_Process__filters
p8
(dp9
sV_Process__producers
p10
(dp11
VunpackedTracksAndVertices
p12
g0
(cFWCore.ParameterSet.Modules
EDProducer
p13
g2
Ntp14
Rp15
(dp16
V_TypedParameterizable__type
p17
VPATTrackAndVertexUnpacker
p18
sV_Parameterizable__parameterNames
p19
(lp20
VslimmedVertices
p21
aVslimmedSecondaryVertices
p22
aVadditionalTracks
p23
aVpackedCandidates
p24
asV_isFrozen
p25
I00
sV_Parameterizable__validator
p26
Nsg21
g0
(cFWCore.ParameterSet.Types
InputTag
p27
g2
Ntp28
Rp29
(dp30
g25
I00
sV_ParameterTypeBase__isTracked
p31
I01
sV_isModified
p32
I00
sV_InputTag__moduleLabel
p33
VofflineSlimmedPrimaryVertices
p34
sV_InputTag__productInstance
p35
V
p36
sV_InputTag__processName
p37
g36
sbsg32
I00
sg22
g0
(g27
g2
Ntp38
Rp39
(dp40
g25
I00
sg31
I01
sg32
I00
sg33
g22
sg35
g36
sg37
g36
sbsg23
g0
(g27
g2
Ntp41
Rp42
(dp43
g25
I00
sg31
I01
sg32
I00
sg33
VlostTracks
p44
sg35
g36
sg37
g36
sbsg24
g0
(g27
g2
Ntp45
Rp46
(dp47
g25
I00
sg31
I01
sg32
I00
sg33
VpackedPFCandidates
p48
sg35
g36
sg37
g36
sbsV_filename
p49
V/cvmfs/cms.cern.ch/slc7_amd64_gcc10/cms/cmssw-patch/CMSSW_12_4_11_patch3/python/PhysicsTools/PatAlgos/slimming/unpackedTracksAndVertices_cfi.py
p50
sV_lineNumber
p51
I2
sV_Labelable__label
p52
g12
sbsVMuJetProducer
p53
g0
(g13
g2
Ntp54
Rp55
(dp56
g17
VMuJetProducerRun2
p57
sg19
(lp58
Vmuons
p59
aVbeamSpot
p60
aVminPt
p61
aVmaxAbsEta
p62
aVminTrackerHits
p63
aVmaxTrackerNormChi2
p64
aVmaxTrackerDxy
p65
aVmaxTrackerDz
p66
aVmaxQoverpError
p67
aVmaxPhiError
p68
aVmaxEtaError
p69
aVmaxDxyError
p70
aVmaxDzError
p71
aVminOuterHits
p72
aVmaxOuterNormChi2
p73
aVmaxGlobalNormChi2
p74
aVmaxStaRelChi2
p75
aVminSegmentMatches
p76
aVmuonSelectors
p77
aVdetailedSelectors
p78
aVcalculateVertex
p79
aVgroupingMode
p80
aVmaxDeltaR
p81
aVmaxMass
p82
aVminVertexProb
p83
aVgroupByCharge
p84
aVbarrelPixelLayer
p85
aVendcapPixelLayer
p86
asg25
I00
sg26
Nsg59
g0
(g27
g2
Ntp87
Rp88
(dp89
g25
I00
sg31
I01
sg32
I00
sg33
VslimmedMuons
p90
sg35
g36
sg37
g36
sbsg32
I00
sg60
g0
(g27
g2
Ntp91
Rp92
(dp93
g25
I00
sg31
I01
sg32
I00
sg33
VofflineBeamSpot
p94
sg35
g36
sg37
g36
sbsg61
g0
(cFWCore.ParameterSet.Types
double
p95
g2
Ntp96
Rp97
(dp98
g25
I00
sg31
I01
sg32
I00
sV_value
p99
F8.0
sbsg62
g0
(g95
g2
Ntp100
Rp101
(dp102
g25
I00
sg31
I01
sg32
I00
sg99
F2.4
sbsg63
g0
(cFWCore.ParameterSet.Types
int32
p103
g2
Ntp104
Rp105
(dp106
g25
I00
sg31
I01
sg32
I00
sg99
I8
sbsg64
g0
(g95
g2
Ntp107
Rp108
(dp109
g25
I00
sg31
I01
sg32
I00
sg99
F4.0
sbsg65
g0
(g95
g2
Ntp110
Rp111
(dp112
g25
I00
sg31
I01
sg32
I00
sg99
F-1.0
sbsg66
g0
(g95
g2
Ntp113
Rp114
(dp115
g25
I00
sg31
I01
sg32
I00
sg99
F-1.0
sbsg67
g0
(g95
g2
Ntp116
Rp117
(dp118
g25
I00
sg31
I01
sg32
I00
sg99
F-1.0
sbsg68
g0
(g95
g2
Ntp119
Rp120
(dp121
g25
I00
sg31
I01
sg32
I00
sg99
F-1.0
sbsg69
g0
(g95
g2
Ntp122
Rp123
(dp124
g25
I00
sg31
I01
sg32
I00
sg99
F-1.0
sbsg70
g0
(g95
g2
Ntp125
Rp126
(dp127
g25
I00
sg31
I01
sg32
I00
sg99
F-1.0
sbsg71
g0
(g95
g2
Ntp128
Rp129
(dp130
g25
I00
sg31
I01
sg32
I00
sg99
F-1.0
sbsg72
g0
(g103
g2
Ntp131
Rp132
(dp133
g25
I00
sg31
I01
sg32
I00
sg99
I-1
sbsg73
g0
(g95
g2
Ntp134
Rp135
(dp136
g25
I00
sg31
I01
sg32
I00
sg99
F-1.0
sbsg74
g0
(g95
g2
Ntp137
Rp138
(dp139
g25
I00
sg31
I01
sg32
I00
sg99
F-1.0
sbsg75
g0
(g95
g2
Ntp140
Rp141
(dp142
g25
I00
sg31
I01
sg32
I00
sg99
F-1.0
sbsg76
g0
(g103
g2
Ntp143
Rp144
(dp145
g25
I00
sg31
I01
sg32
I00
sg99
I2
sbsg77
g0
(cFWCore.ParameterSet.Types
vstring
p146
c__builtin__
list
p147
(lp148
tp149
Rp150
(dp151
g25
I00
sg31
I01
sg32
I00
sV_nPerLine
p152
I1
sbsg78
g0
(cFWCore.ParameterSet.Types
VPSet
p153
g147
(lp154
tp155
Rp156
(dp157
g25
I00
sg31
I01
sg32
I00
sg152
I1
sbsg79
g0
(cFWCore.ParameterSet.Types
bool
p158
g2
Ntp159
Rp160
(dp161
g25
I00
sg31
I01
sg32
I00
sg99
I01
sbsg80
g0
(cFWCore.ParameterSet.Types
string
p162
g2
Ntp163
Rp164
(dp165
g25
I00
sg31
I01
sg32
I00
sg99
VGroupByMassAndVertexProbOrDeltaR
p166
sbsg81
g0
(g95
g2
Ntp167
Rp168
(dp169
g25
I00
sg31
I01
sg32
I00
sg99
F0.01
sbsg82
g0
(g95
g2
Ntp170
Rp171
(dp172
g25
I00
sg31
I01
sg32
I00
sg99
F60.0
sbsg83
g0
(g95
g2
Ntp173
Rp174
(dp175
g25
I00
sg31
I01
sg32
I00
sg99
I-1
sbsg84
g0
(g162
g2
Ntp176
Rp177
(dp178
g25
I00
sg31
I01
sg32
I00
sg99
Vopposite
p179
sbsg85
g0
(g103
g2
Ntp180
Rp181
(dp182
g25
I00
sg31
I01
sg32
I00
sg99
I1
sbsg86
g0
(g103
g2
Ntp183
Rp184
(dp185
g25
I00
sg31
I01
sg32
I00
sg99
I1
sbsg49
V/eos/home-h/hencinas/MyMuJetAnalysis/CMSSW_12_4_11_patch3/python/MuJetAnalysis/MuJetProducer/MuJetProducerRun2_cfi.py
p186
sg51
I3
sg52
g53
sbsVPFMuJetProducer05PXBL4PXFL3
p187
g0
(g13
g2
Ntp188
Rp189
(dp190
g17
g57
sg19
(lp191
g59
ag60
ag61
ag62
ag63
ag64
ag65
ag66
ag67
ag68
ag69
ag70
ag71
ag72
ag73
ag74
ag75
ag76
ag77
ag78
ag79
ag80
ag81
ag82
ag83
ag84
ag85
ag86
asg25
I00
sg26
Nsg59
g0
(g27
g2
Ntp192
Rp193
(dp194
g25
I00
sg31
I01
sg32
I00
sg33
g90
sg35
g36
sg37
g36
sbsg32
I00
sg60
g0
(g27
g2
Ntp195
Rp196
(dp197
g25
I00
sg31
I01
sg32
I00
sg33
g94
sg35
g36
sg37
g36
sbsg61
g0
(g95
g2
Ntp198
Rp199
(dp200
g25
I00
sg31
I01
sg32
I00
sg99
F8.0
sbsg62
g0
(g95
g2
Ntp201
Rp202
(dp203
g25
I00
sg31
I01
sg32
I00
sg99
F2.4
sbsg63
g0
(g103
g2
Ntp204
Rp205
(dp206
g25
I00
sg31
I01
sg32
I00
sg99
I-1
sbsg64
g0
(g95
g2
Ntp207
Rp208
(dp209
g25
I00
sg31
I01
sg32
I00
sg99
F-1.0
sbsg65
g0
(g95
g2
Ntp210
Rp211
(dp212
g25
I00
sg31
I01
sg32
I00
sg99
F-1.0
sbsg66
g0
(g95
g2
Ntp213
Rp214
(dp215
g25
I00
sg31
I01
sg32
I00
sg99
F-1.0
sbsg67
g0
(g95
g2
Ntp216
Rp217
(dp218
g25
I00
sg31
I01
sg32
I00
sg99
F-1.0
sbsg68
g0
(g95
g2
Ntp219
Rp220
(dp221
g25
I00
sg31
I01
sg32
I00
sg99
F-1.0
sbsg69
g0
(g95
g2
Ntp222
Rp223
(dp224
g25
I00
sg31
I01
sg32
I00
sg99
F-1.0
sbsg70
g0
(g95
g2
Ntp225
Rp226
(dp227
g25
I00
sg31
I01
sg32
I00
sg99
F-1.0
sbsg71
g0
(g95
g2
Ntp228
Rp229
(dp230
g25
I00
sg31
I01
sg32
I00
sg99
F-1.0
sbsg72
g0
(g103
g2
Ntp231
Rp232
(dp233
g25
I00
sg31
I01
sg32
I00
sg99
I-1
sbsg73
g0
(g95
g2
Ntp234
Rp235
(dp236
g25
I00
sg31
I01
sg32
I00
sg99
F-1.0
sbsg74
g0
(g95
g2
Ntp237
Rp238
(dp239
g25
I00
sg31
I01
sg32
I00
sg99
F-1.0
sbsg75
g0
(g95
g2
Ntp240
Rp241
(dp242
g25
I00
sg31
I01
sg32
I00
sg99
F-1.0
sbsg76
g0
(g103
g2
Ntp243
Rp244
(dp245
g25
I00
sg31
I01
sg32
I00
sg99
I-1
sbsg77
g0
(g146
g147
(lp246
tp247
Rp248
(dp249
g25
I00
sg31
I01
sg32
I00
sg152
I1
sbsg78
g0
(g153
g147
(lp250
tp251
Rp252
(dp253
g25
I00
sg31
I01
sg32
I00
sg152
I1
sbsg79
g0
(g158
g2
Ntp254
Rp255
(dp256
g25
I00
sg31
I01
sg32
I00
sg99
I01
sbsg80
g0
(g162
g2
Ntp257
Rp258
(dp259
g25
I00
sg31
I01
sg32
I00
sg99
g166
sbsg81
g0
(g95
g2
Ntp260
Rp261
(dp262
g25
I00
sg31
I01
sg32
I00
sg99
F0.01
sbsg82
g0
(g95
g2
Ntp263
Rp264
(dp265
g25
I00
sg31
I01
sg32
I00
sg99
F60.0
sbsg83
g0
(g95
g2
Ntp266
Rp267
(dp268
g25
I00
sg31
I01
sg32
I00
sg99
I-1
sbsg84
g0
(g162
g2
Ntp269
Rp270
(dp271
g25
I00
sg31
I01
sg32
I00
sg99
g179
sbsg85
g0
(g103
g2
Ntp272
Rp273
(dp274
g25
I00
sg31
I01
sg32
I00
sg99
I4
sbsg86
g0
(g103
g2
Ntp275
Rp276
(dp277
g25
I00
sg31
I01
sg32
I00
sg99
I3
sbsg49
V/eos/home-h/hencinas/MyMuJetAnalysis/CMSSW_12_4_11_patch3/python/MuJetAnalysis/MuJetProducer/MuJetProducerRun2_cff.py
p278
sg51
I4
sg52
g187
sbssV_Process__switchproducers
p279
(dp280
sV_Process__source
p281
g0
(cFWCore.ParameterSet.Modules
Source
p282
g2
Ntp283
Rp284
(dp285
g17
VPoolSource
p286
sg19
(lp287
VfileNames
p288
asg25
I00
sg26
Nsg288
g0
(g146
g147
(lp289
Vfile:/eos/user/h/hencinas/Dark_photo_sample_analysis/CMSSW_12_4_11_patch3/src/13p6Tev_samples/cT_100/DarkSUSY_mH_125_mN1_10_mND_1_mGammaD_0p25_13p6TeV_cT_100_events100k_MINIAOD.root
p290
atp291
Rp292
(dp293
g25
I00
sg31
I00
sg32
I00
sg152
I1
sbsg32
I00
sg49
V/cvmfs/cms.cern.ch/slc7_amd64_gcc10/cms/cmssw-patch/CMSSW_12_4_11_patch3/python/FWCore/ParameterSet/Modules.py
p294
sg51
I195
sbsV_Process__looper
p295
NsV_Process__subProcesses
p296
(lp297
sV_Process__schedule
p298
NsV_Process__analyzers
p299
(dp300
VcutFlowAnalyzer
p301
g0
(cFWCore.ParameterSet.Modules
EDAnalyzer
p302
g2
Ntp303
Rp304
(dp305
g17
VCutFlowAnalyzer_MiniAOD
p306
sg19
(lp307
VanalyzerDebug
p308
ag59
ag60
aVmuPairs
p309
aVmuJets
p310
aVmuJetOrphans
p311
aVtracks
p312
aVTriggerResults
p313
aVhltProcess
p314
aVTrackRefitter
p315
aVPrunedGenParticles
p316
aVpileupCollection
p317
aVprimaryVertices
p318
aVsecondaryVertices
p319
aVPATJet
p320
aVDiMuons_Iso_Max
p321
aVnThrowsConsistentVertexesCalculator
p322
ag85
ag86
aVrunDisplacedVtxFinder
p323
aVTraj
p324
aVNavigationSchool
p325
aVMeasurementTracker
p326
aVMeasurementTrackerEvent
p327
aVPropagator
p328
aVskimOutput
p329
aVsignalHltPaths
p330
aVorthogonalHltPaths
p331
aVcontrolHltPaths
p332
aVl1algos
p333
aVhltPSProvCfg
p334
asg25
I00
sg26
Nsg308
g0
(g103
g2
Ntp335
Rp336
(dp337
g25
I00
sg31
I01
sg32
I00
sg99
I-1
sbsg32
I00
sg59
g0
(g27
g2
Ntp338
Rp339
(dp340
g25
I00
sg31
I01
sg32
I00
sg33
g90
sg35
g36
sg37
g36
sbsg60
g0
(g27
g2
Ntp341
Rp342
(dp343
g25
I00
sg31
I01
sg32
I00
sg33
g94
sg35
g36
sg37
g36
sbsg309
g0
(g27
g2
Ntp344
Rp345
(dp346
g25
I00
sg31
I01
sg32
I00
sg33
VPFMuJetProducer05
p347
sg35
VPairs
p348
sg37
g36
sbsg310
g0
(g27
g2
Ntp349
Rp350
(dp351
g25
I00
sg31
I01
sg32
I00
sg33
g347
sg35
g36
sg37
g36
sbsg311
g0
(g27
g2
Ntp352
Rp353
(dp354
g25
I00
sg31
I01
sg32
I00
sg33
g347
sg35
VOrphans
p355
sg37
g36
sbsg312
g0
(g27
g2
Ntp356
Rp357
(dp358
g25
I00
sg31
I01
sg32
I00
sg33
g12
sg35
g36
sg37
g36
sbsg313
g0
(g27
g2
Ntp359
Rp360
(dp361
g25
I00
sg31
I01
sg32
I00
sg33
g313
sg35
g36
sg37
VHLT
p362
sbsg314
g0
(g162
g2
Ntp363
Rp364
(dp365
g25
I00
sg31
I01
sg32
I00
sg99
g362
sbsg315
g0
(g27
g2
Ntp366
Rp367
(dp368
g25
I00
sg31
I01
sg32
I00
sg33
g315
sg35
g36
sg37
g36
sbsg316
g0
(g27
g2
Ntp369
Rp370
(dp371
g25
I00
sg31
I01
sg32
I00
sg33
VprunedGenParticles
p372
sg35
g36
sg37
g36
sbsg317
g0
(g27
g2
Ntp373
Rp374
(dp375
g25
I00
sg31
I01
sg32
I00
sg33
VslimmedAddPileupInfo
p376
sg35
g36
sg37
g36
sbsg318
g0
(g27
g2
Ntp377
Rp378
(dp379
g25
I00
sg31
I01
sg32
I00
sg33
g12
sg35
g36
sg37
g36
sbsg319
g0
(g27
g2
Ntp380
Rp381
(dp382
g25
I00
sg31
I01
sg32
I00
sg33
g12
sg35
Vsecondary
p383
sg37
g36
sbsg320
g0
(g27
g2
Ntp384
Rp385
(dp386
g25
I00
sg31
I01
sg32
I00
sg33
VslimmedJets
p387
sg35
g36
sg37
g36
sbsg321
g0
(g95
g2
Ntp388
Rp389
(dp390
g25
I00
sg31
I01
sg32
I00
sg99
F2.0
sbsg322
g0
(g103
g2
Ntp391
Rp392
(dp393
g25
I00
sg31
I01
sg32
I00
sg99
I0
sbsg85
g0
(g103
g2
Ntp394
Rp395
(dp396
g25
I00
sg31
I01
sg32
I00
sg99
I1
sbsg86
g0
(g103
g2
Ntp397
Rp398
(dp399
g25
I00
sg31
I01
sg32
I00
sg99
I1
sbsg323
g0
(g158
g2
Ntp400
Rp401
(dp402
g25
I00
sg31
I01
sg32
I00
sg99
I00
sbsg324
g0
(g27
g2
Ntp403
Rp404
(dp405
g25
I00
sg31
I01
sg32
I00
sg33
g315
sg35
g36
sg37
g36
sbsg325
g0
(g162
g2
Ntp406
Rp407
(dp408
g25
I00
sg31
I01
sg32
I00
sg99
VSimpleNavigationSchool
p409
sbsg326
g0
(g162
g2
Ntp410
Rp411
(dp412
g25
I00
sg31
I01
sg32
I00
sg99
g36
sbsg327
g0
(g27
g2
Ntp413
Rp414
(dp415
g25
I00
sg31
I01
sg32
I00
sg33
g327
sg35
g36
sg37
g36
sbsg328
g0
(g162
g2
Ntp416
Rp417
(dp418
g25
I00
sg31
I01
sg32
I00
sg99
VRungeKuttaTrackerPropagator
p419
sbsg329
g0
(g158
g2
Ntp420
Rp421
(dp422
g25
I00
sg31
I01
sg32
I00
sg99
I00
sbsg330
g0
(g146
g147
(lp423
VHLT_TrkMu12_DoubleTrkMu5NoFiltersNoVtx
p424
aVHLT_Mu18_Mu9_SameSign
p425
aVHLT_DoubleL2Mu23NoVtx_2Cha
p426
aVHLT_TripleMu_12_10_5
p427
atp428
Rp429
(dp430
g25
I00
sg31
I01
sg32
I00
sg152
I1
sbsg331
g0
(g146
g147
(lp431
VHLT_CaloMET350_HBHECleaned
p432
aVHLT_DiJet110_35_Mjj650_PFMET110
p433
aVHLT_MET105_IsoTrk50
p434
aVHLT_MonoCentralPFJet80_PFMETNoMu120_PFMHTNoMu120_IDTight
p435
aVHLT_PFMET110_PFMHT110_IDTight_CaloBTagDeepCSV_3p1
p436
aVHLT_PFMET120_PFMHT120_IDTight
p437
aVHLT_PFMET200_HBHE_BeamHaloCleaned
p438
aVHLT_PFMET250_HBHECleaned
p439
aVHLT_PFMETNoMu120_PFMHTNoMu120_IDTight
p440
aVHLT_PFMETTypeOne140_PFMHT140_IDTight
p441
aVHLT_PFMETTypeOne200_HBHE_BeamHaloCleaned
p442
aVHLT_TripleJet110_35_35_Mjj650_PFMET110
p443
atp444
Rp445
(dp446
g25
I00
sg31
I01
sg32
I00
sg152
I1
sbsg332
g0
(g146
g147
(lp447
VHLT_TrkMu16NoFiltersNoVtx
p448
aVHLT_TrkMu6NoFiltersNoVtx
p449
atp450
Rp451
(dp452
g25
I00
sg31
I01
sg32
I00
sg152
I1
sbsg333
g0
(g146
g147
(lp453
VL1_TripleMu0
p454
aVL1_TripleMu_5_5_3
p455
aVL1_TripleMu_5_3_3
p456
aVL1_TripleMu3_SQ
p457
atp458
Rp459
(dp460
g25
I00
sg31
I01
sg32
I00
sg152
I1
sbsg334
g0
(cFWCore.ParameterSet.Types
PSet
p461
g2
Ntp462
Rp463
(dp464
g25
I00
sg31
I01
sg32
I00
sg19
(lp465
VstageL1Trigger
p466
asg26
Nsg466
g0
(cFWCore.ParameterSet.Types
uint32
p467
g2
Ntp468
Rp469
(dp470
g25
I00
sg31
I01
sg32
I00
sg99
I2
sbsbsg49
V/eos/home-h/hencinas/MyMuJetAnalysis/CMSSW_12_4_11_patch3/python/MuJetAnalysis/CutFlowAnalyzer/CutFlowAnalyzer_MiniAOD_cfi.py
p471
sg51
I3
sg52
g301
sbsVcutFlowAnalyzerPXBL4PXFL3
p472
g0
(g302
g2
Ntp473
Rp474
(dp475
g17
g306
sg19
(lp476
g308
ag59
ag60
ag309
ag310
ag311
ag312
ag313
ag314
ag315
ag316
ag317
ag318
ag319
ag320
ag321
ag322
ag85
ag86
ag323
ag324
ag325
ag326
ag327
ag328
ag329
ag330
ag331
ag332
ag333
ag334
asg25
I00
sg26
Nsg308
g0
(g103
g2
Ntp477
Rp478
(dp479
g25
I00
sg31
I01
sg32
I00
sg99
I-1
sbsg32
I00
sg59
g0
(g27
g2
Ntp480
Rp481
(dp482
g25
I00
sg31
I01
sg32
I00
sg33
g90
sg35
g36
sg37
g36
sbsg60
g0
(g27
g2
Ntp483
Rp484
(dp485
g25
I00
sg31
I01
sg32
I00
sg33
g94
sg35
g36
sg37
g36
sbsg309
g0
(g27
g2
Ntp486
Rp487
(dp488
g25
I00
sg31
I01
sg32
I00
sg33
g187
sg35
g348
sg37
g36
sbsg310
g0
(g27
g2
Ntp489
Rp490
(dp491
g25
I00
sg31
I01
sg32
I00
sg33
g187
sg35
g36
sg37
g36
sbsg311
g0
(g27
g2
Ntp492
Rp493
(dp494
g25
I00
sg31
I01
sg32
I00
sg33
g187
sg35
g355
sg37
g36
sbsg312
g0
(g27
g2
Ntp495
Rp496
(dp497
g25
I00
sg31
I01
sg32
I00
sg33
g12
sg35
g36
sg37
g36
sbsg313
g0
(g27
g2
Ntp498
Rp499
(dp500
g25
I00
sg31
I01
sg32
I00
sg33
g313
sg35
g36
sg37
g362
sbsg314
g0
(g162
g2
Ntp501
Rp502
(dp503
g25
I00
sg31
I01
sg32
I00
sg99
g362
sbsg315
g0
(g27
g2
Ntp504
Rp505
(dp506
g25
I00
sg31
I01
sg32
I00
sg33
g315
sg35
g36
sg37
g36
sbsg316
g0
(g27
g2
Ntp507
Rp508
(dp509
g25
I00
sg31
I01
sg32
I00
sg33
g372
sg35
g36
sg37
g36
sbsg317
g0
(g27
g2
Ntp510
Rp511
(dp512
g25
I00
sg31
I01
sg32
I00
sg33
g376
sg35
g36
sg37
g36
sbsg318
g0
(g27
g2
Ntp513
Rp514
(dp515
g25
I00
sg31
I01
sg32
I00
sg33
g12
sg35
g36
sg37
g36
sbsg319
g0
(g27
g2
Ntp516
Rp517
(dp518
g25
I00
sg31
I01
sg32
I00
sg33
g12
sg35
g383
sg37
g36
sbsg320
g0
(g27
g2
Ntp519
Rp520
(dp521
g25
I00
sg31
I01
sg32
I00
sg33
g387
sg35
g36
sg37
g36
sbsg321
g0
(g95
g2
Ntp522
Rp523
(dp524
g25
I00
sg31
I01
sg32
I00
sg99
F2.0
sbsg322
g0
(g103
g2
Ntp525
Rp526
(dp527
g25
I00
sg31
I01
sg32
I00
sg99
I0
sbsg85
g0
(g103
g2
Ntp528
Rp529
(dp530
g25
I00
sg31
I01
sg32
I00
sg99
I4
sbsg86
g0
(g103
g2
Ntp531
Rp532
(dp533
g25
I00
sg31
I01
sg32
I00
sg99
I3
sbsg323
g0
(g158
g2
Ntp534
Rp535
(dp536
g25
I00
sg31
I01
sg32
I00
sg99
I00
sbsg324
g0
(g27
g2
Ntp537
Rp538
(dp539
g25
I00
sg31
I01
sg32
I00
sg33
g315
sg35
g36
sg37
g36
sbsg325
g0
(g162
g2
Ntp540
Rp541
(dp542
g25
I00
sg31
I01
sg32
I00
sg99
g409
sbsg326
g0
(g162
g2
Ntp543
Rp544
(dp545
g25
I00
sg31
I01
sg32
I00
sg99
g36
sbsg327
g0
(g27
g2
Ntp546
Rp547
(dp548
g25
I00
sg31
I01
sg32
I00
sg33
g327
sg35
g36
sg37
g36
sbsg328
g0
(g162
g2
Ntp549
Rp550
(dp551
g25
I00
sg31
I01
sg32
I00
sg99
g419
sbsg329
g0
(g158
g2
Ntp552
Rp553
(dp554
g25
I00
sg31
I01
sg32
I00
sg99
I00
sbsg330
g0
(g146
g147
(lp555
g424
ag425
ag426
ag427
atp556
Rp557
(dp558
g25
I00
sg31
I01
sg32
I00
sg152
I1
sbsg331
g0
(g146
g147
(lp559
g432
ag433
ag434
ag435
ag436
ag437
ag438
ag439
ag440
ag441
ag442
ag443
atp560
Rp561
(dp562
g25
I00
sg31
I01
sg32
I00
sg152
I1
sbsg332
g0
(g146
g147
(lp563
g448
ag449
atp564
Rp565
(dp566
g25
I00
sg31
I01
sg32
I00
sg152
I1
sbsg333
g0
(g146
g147
(lp567
g454
ag455
ag456
ag457
atp568
Rp569
(dp570
g25
I00
sg31
I01
sg32
I00
sg152
I1
sbsg334
g0
(g461
g2
Ntp571
Rp572
(dp573
g25
I00
sg31
I01
sg32
I00
sg19
(lp574
g466
asg26
Nsg466
g0
(g467
g2
Ntp575
Rp576
(dp577
g25
I00
sg31
I01
sg32
I00
sg99
I2
sbsbsg49
V/eos/home-h/hencinas/MyMuJetAnalysis/CMSSW_12_4_11_patch3/python/MuJetAnalysis/CutFlowAnalyzer/CutFlowAnalyzer_MiniAOD_cff.py
p578
sg51
I4
sg52
g472
sbssV_Process__outputmodules
p579
(dp580
Vout
p581
g0
(cFWCore.ParameterSet.Modules
OutputModule
p582
g2
Ntp583
Rp584
(dp585
g17
VPoolOutputModule
p586
sg19
(lp587
VfileName
p588
asg25
I00
sg26
Nsg588
g0
(g162
g2
Ntp589
Rp590
(dp591
g25
I00
sg31
I00
sg32
I00
sg99
VpatTuple.root
p592
sbsg32
I00
sg49
V/eos/home-h/hencinas/MyMuJetAnalysis/CMSSW_12_4_11_patch3/src/MuJetAnalysis/DataFormats/scripts/patifyMC_13TeV/patTuple_cutana_mujets_MiniAOD_cfg.py
p593
sg51
I40
sg52
g581
sbssV_Process__paths
p594
g0
(cFWCore.ParameterSet.DictTypes
SortedKeysDict
p595
c__builtin__
dict
p596
(dp597
Vp
p598
g0
(cFWCore.ParameterSet.SequenceTypes
Path
p599
g2
Ntp600
Rp601
(dp602
g25
I00
sV_seq
p603
g0
(cFWCore.ParameterSet.SequenceTypes
_SequenceCollection
p604
g2
Ntp605
Rp606
(dp607
V_collection
p608
(lp609
g15
ag0
(cFWCore.ParameterSet.SequenceTypes
Sequence
p610
g2
Ntp611
Rp612
(dp613
g25
I00
sg603
g0
(g604
g2
Ntp614
Rp615
(dp616
g608
(lp617
g189
asbsg32
I00
sV_tasks
p618
g0
(cFWCore.ParameterSet.OrderedSet
OrderedSet
p619
g2
Ntp620
Rp621
(dp622
Vend
p623
(lp624
Nag624
ag624
asVmap
p625
(dp626
sbsg52
VMuJetProducers
p627
sbag0
(g610
g2
Ntp628
Rp629
(dp630
g25
I00
sg603
g0
(g604
g2
Ntp631
Rp632
(dp633
g608
(lp634
g474
asbsg32
I00
sg618
g0
(g619
g2
Ntp635
Rp636
(dp637
g623
(lp638
Nag638
ag638
asg625
(dp639
sbsg52
VcutFlowAnalyzers
p640
sbasbsg32
I00
sg618
g0
(g619
g2
Ntp641
Rp642
(dp643
g623
(lp644
Nag644
ag644
asg625
(dp645
sbsg52
g598
sbstp646
Rp647
(dp648
Vlist
p649
(lp650
g598
asbsV_Process__endpaths
p651
g0
(g595
g596
(dp652
tp653
Rp654
(dp655
g649
(lp656
sbsV_Process__finalpaths
p657
g0
(g595
g596
(dp658
tp659
Rp660
(dp661
g649
(lp662
sbsV_Process__sequences
p663
(dp664
g627
g612
sg640
g629
ssV_Process__tasks
p665
(dp666
sV_Process__conditionaltasks
p667
(dp668
sV_Process__services
p669
(dp670
VMessageLogger
p671
g0
(cFWCore.ParameterSet.Modules
Service
p672
g2
Ntp673
Rp674
(dp675
g17
g671
sg19
(lp676
VsuppressWarning
p677
aVsuppressFwkInfo
p678
aVsuppressInfo
p679
aVsuppressDebug
p680
aVdebugModules
p681
aVcout
p682
aVdefault
p683
aVcerr
p684
aVfiles
p685
asg25
I00
sg26
g0
(cFWCore.ParameterSet.Types
_OptionalParameter
p686
g2
Ntp687
Rp688
(dp689
g25
I00
sg31
I00
sg32
I00
sV_ProxyParameter__type
p690
g0
(cFWCore.ParameterSet.Types
_PSetTemplate
p691
g2
Ntp692
Rp693
(dp694
V_pset
p695
g0
(g461
g2
Ntp696
Rp697
(dp698
g25
I00
sg31
I01
sg32
I00
sg19
(lp699
VreportEvery
p700
aVlimit
p701
aVtimespan
p702
asg26
Nsg700
g0
(g103
g2
Ntp703
Rp704
(dp705
g25
I00
sg31
I00
sg32
I00
sg99
I1
sbsg701
g0
(g686
g2
Ntp706
Rp707
(dp708
g25
I00
sg31
I00
sg32
I00
sg690
g103
sV_ProxyParameter__value
p709
Nsbsg702
g0
(g686
g2
Ntp710
Rp711
(dp712
g25
I00
sg31
I00
sg32
I00
sg690
g103
sg709
NsbsbsV_PSetTemplate__value
p713
Nsbsg709
Nsbsg677
g0
(g146
g147
(lp714
tp715
Rp716
(dp717
g25
I00
sg31
I00
sg32
I00
sg152
I1
sbsg32
I00
sg678
g0
(g146
g147
(lp718
tp719
Rp720
(dp721
g25
I00
sg31
I00
sg32
I00
sg152
I1
sbsg679
g0
(g146
g147
(lp722
tp723
Rp724
(dp725
g25
I00
sg31
I00
sg32
I00
sg152
I1
sbsg680
g0
(g146
g147
(lp726
tp727
Rp728
(dp729
g25
I00
sg31
I00
sg32
I00
sg152
I1
sbsg681
g0
(g146
g147
(lp730
tp731
Rp732
(dp733
g25
I00
sg31
I00
sg32
I00
sg152
I1
sbsg682
g0
(g461
g2
Ntp734
Rp735
(dp736
g25
I00
sg31
I00
sg32
I00
sg19
(lp737
VnoLineBreaks
p738
aVnoTimeStamps
p739
aVlineLength
p740
aVthreshold
p741
aVstatisticsThreshold
p742
aVenableStatistics
p743
aVresetStatistics
p744
aVenable
p745
asg26
g688
sg738
g0
(g686
g2
Ntp746
Rp747
(dp748
g25
I00
sg31
I00
sg32
I00
sg690
g158
sg709
Nsbsg739
g0
(g686
g2
Ntp749
Rp750
(dp751
g25
I00
sg31
I00
sg32
I00
sg690
g158
sg709
Nsbsg740
g0
(g686
g2
Ntp752
Rp753
(dp754
g25
I00
sg31
I00
sg32
I00
sg690
g103
sg709
Nsbsg741
g0
(g686
g2
Ntp755
Rp756
(dp757
g25
I00
sg31
I00
sg32
I00
sg690
g162
sg709
Nsbsg742
g0
(g686
g2
Ntp758
Rp759
(dp760
g25
I00
sg31
I00
sg32
I00
sg690
g162
sg709
Nsbsg743
g0
(g158
g2
Ntp761
Rp762
(dp763
g25
I00
sg31
I00
sg32
I00
sg99
I00
sbsg744
g0
(g158
g2
Ntp764
Rp765
(dp766
g25
I00
sg31
I00
sg32
I00
sg99
I00
sbsg745
g0
(g158
g2
Ntp767
Rp768
(dp769
g25
I00
sg31
I00
sg32
I00
sg99
I00
sbsbsg683
g0
(g461
g2
Ntp770
Rp771
(dp772
g25
I00
sg31
I00
sg32
I00
sg19
(lp773
g700
ag701
ag702
ag738
ag739
ag740
ag741
ag742
asg26
g688
sg700
g0
(g103
g2
Ntp774
Rp775
(dp776
g25
I00
sg31
I00
sg32
I00
sg99
I1
sbsg701
g0
(g686
g2
Ntp777
Rp778
(dp779
g25
I00
sg31
I00
sg32
I00
sg690
g103
sg709
Nsbsg702
g0
(g686
g2
Ntp780
Rp781
(dp782
g25
I00
sg31
I00
sg32
I00
sg690
g103
sg709
Nsbsg738
g0
(g158
g2
Ntp783
Rp784
(dp785
g25
I00
sg31
I00
sg32
I00
sg99
I00
sbsg739
g0
(g158
g2
Ntp786
Rp787
(dp788
g25
I00
sg31
I00
sg32
I00
sg99
I00
sbsg740
g0
(g103
g2
Ntp789
Rp790
(dp791
g25
I00
sg31
I00
sg32
I00
sg99
I80
sbsg741
g0
(g162
g2
Ntp792
Rp793
(dp794
g25
I00
sg31
I00
sg32
I00
sg99
VINFO
p795
sbsg742
g0
(g162
g2
Ntp796
Rp797
(dp798
g25
I00
sg31
I00
sg32
I00
sg99
g795
sbsbsg684
g0
(g461
g2
Ntp799
Rp800
(dp801
g25
I00
sg31
I00
sg32
I00
sg19
(lp802
g738
ag739
ag740
ag741
ag742
ag745
ag743
ag744
ag795
aVFwkReport
p803
ag683
aVRoot_NoDictionary
p804
aVFwkSummary
p805
asg26
g688
sg738
g0
(g686
g2
Ntp806
Rp807
(dp808
g25
I00
sg31
I00
sg32
I00
sg690
g158
sg709
Nsbsg739
g0
(g158
g2
Ntp809
Rp810
(dp811
g25
I00
sg31
I00
sg32
I00
sg99
I00
sbsg740
g0
(g686
g2
Ntp812
Rp813
(dp814
g25
I00
sg31
I00
sg32
I00
sg690
g103
sg709
Nsbsg741
g0
(g162
g2
Ntp815
Rp816
(dp817
g25
I00
sg31
I00
sg32
I00
sg99
g795
sbsg742
g0
(g162
g2
Ntp818
Rp819
(dp820
g25
I00
sg31
I00
sg32
I00
sg99
VWARNING
p821
sbsg745
g0
(g158
g2
Ntp822
Rp823
(dp824
g25
I00
sg31
I00
sg32
I00
sg99
I01
sbsg743
g0
(g158
g2
Ntp825
Rp826
(dp827
g25
I00
sg31
I00
sg32
I00
sg99
I01
sbsg744
g0
(g158
g2
Ntp828
Rp829
(dp830
g25
I00
sg31
I00
sg32
I00
sg99
I00
sbsg795
g0
(g461
g2
Ntp831
Rp832
(dp833
g25
I00
sg31
I00
sg32
I00
sg19
(lp834
g701
asg26
Nsg701
g0
(g103
g2
Ntp835
Rp836
(dp837
g25
I00
sg31
I00
sg32
I00
sg99
I0
sbsbsg803
g0
(g461
g2
Ntp838
Rp839
(dp840
g25
I00
sg31
I00
sg32
I00
sg19
(lp841
g700
ag701
asg26
Nsg700
g0
(g103
g2
Ntp842
Rp843
(dp844
g25
I00
sg31
I00
sg32
I00
sg99
I1
sbsg701
g0
(g103
g2
Ntp845
Rp846
(dp847
g25
I00
sg31
I00
sg32
I00
sg99
I10000000
sbsbsg683
g0
(g461
g2
Ntp848
Rp849
(dp850
g25
I00
sg31
I00
sg32
I00
sg19
(lp851
g701
asg26
Nsg701
g0
(g103
g2
Ntp852
Rp853
(dp854
g25
I00
sg31
I00
sg32
I00
sg99
I10000000
sbsbsg804
g0
(g461
g2
Ntp855
Rp856
(dp857
g25
I00
sg31
I00
sg32
I00
sg19
(lp858
g701
asg26
Nsg701
g0
(g103
g2
Ntp859
Rp860
(dp861
g25
I00
sg31
I00
sg32
I00
sg99
I0
sbsbsg805
g0
(g461
g2
Ntp862
Rp863
(dp864
g25
I00
sg31
I00
sg32
I00
sg19
(lp865
g700
ag701
asg26
Nsg700
g0
(g103
g2
Ntp866
Rp867
(dp868
g25
I00
sg31
I00
sg32
I00
sg99
I1
sbsg701
g0
(g103
g2
Ntp869
Rp870
(dp871
g25
I00
sg31
I00
sg32
I00
sg99
I10000000
sbsbsbsg685
g0
(g461
g2
Ntp872
Rp873
(dp874
g25
I00
sg31
I00
sg32
I00
sg19
(lp875
sg26
g0
(g686
g2
Ntp876
Rp877
(dp878
g25
I00
sg31
I00
sg32
I00
sg690
g0
(g691
g2
Ntp879
Rp880
(dp881
g695
g0
(g461
g2
Ntp882
Rp883
(dp884
g25
I00
sg31
I01
sg32
I00
sg19
(lp885
g738
ag739
ag740
ag741
ag742
ag743
ag744
aVfilename
p886
aVextension
p887
aVoutput
p888
asg26
g688
sg738
g0
(g686
g2
Ntp889
Rp890
(dp891
g25
I00
sg31
I00
sg32
I00
sg690
g158
sg709
Nsbsg739
g0
(g686
g2
Ntp892
Rp893
(dp894
g25
I00
sg31
I00
sg32
I00
sg690
g158
sg709
Nsbsg740
g0
(g686
g2
Ntp895
Rp896
(dp897
g25
I00
sg31
I00
sg32
I00
sg690
g103
sg709
Nsbsg741
g0
(g686
g2
Ntp898
Rp899
(dp900
g25
I00
sg31
I00
sg32
I00
sg690
g162
sg709
Nsbsg742
g0
(g686
g2
Ntp901
Rp902
(dp903
g25
I00
sg31
I00
sg32
I00
sg690
g162
sg709
Nsbsg743
g0
(g158
g2
Ntp904
Rp905
(dp906
g25
I00
sg31
I00
sg32
I00
sg99
I00
sbsg744
g0
(g158
g2
Ntp907
Rp908
(dp909
g25
I00
sg31
I00
sg32
I00
sg99
I00
sbsg886
g0
(g686
g2
Ntp910
Rp911
(dp912
g25
I00
sg31
I00
sg32
I00
sg690
g162
sg709
Nsbsg887
g0
(g686
g2
Ntp913
Rp914
(dp915
g25
I00
sg31
I00
sg32
I00
sg690
g162
sg709
Nsbsg888
g0
(g686
g2
Ntp916
Rp917
(dp918
g25
I00
sg31
I00
sg32
I00
sg690
g162
sg709
Nsbsbsg713
Nsbsg709
Nsbsbsg49
g294
sg51
I13
sV_inProcess
p919
I00
sbsVTFileService
p920
g0
(g672
g2
Ntp921
Rp922
(dp923
g17
g920
sg19
(lp924
g588
asg25
I00
sg26
Nsg588
g0
(g162
g2
Ntp925
Rp926
(dp927
g25
I00
sg31
I01
sg32
I00
sg99
Vout_ana_1.root
p928
sbsg32
I00
sg49
g294
sg51
I13
sg919
I01
sbssV_Process__essources
p929
(dp930
Veegeom
p931
g0
(cFWCore.ParameterSet.Modules
ESSource
p932
g2
Ntp933
Rp934
(dp935
g17
VEmptyESSource
p936
sg19
(lp937
VrecordName
p938
aViovIsRunNotTime
p939
aVfirstValid
p940
asg25
I00
sg26
Nsg938
g0
(g162
g2
Ntp941
Rp942
(dp943
g25
I00
sg31
I01
sg32
I00
sg99
VEcalMappingRcd
p944
sbsg32
I00
sg939
g0
(g158
g2
Ntp945
Rp946
(dp947
g25
I00
sg31
I01
sg32
I00
sg99
I01
sbsg940
g0
(cFWCore.ParameterSet.Types
vuint32
p948
g147
(lp949
I1
atp950
Rp951
(dp952
g25
I00
sg31
I01
sg32
I00
sbsg49
V/cvmfs/cms.cern.ch/slc7_amd64_gcc10/cms/cmssw-patch/CMSSW_12_4_11_patch3/python/Geometry/EcalMapping/EcalMappingRecord_cfi.py
p953
sg51
I3
sg52
g931
sbsVGlobalTag
p954
g0
(g932
g2
Ntp955
Rp956
(dp957
g17
VPoolDBESSource
p958
sg19
(lp959
VDBParameters
p960
aVconnect
p961
aVglobaltag
p962
aVsnapshotTime
p963
aVtoGet
p964
aVDumpStat
p965
aVReconnectEachRun
p966
aVRefreshAlways
p967
aVRefreshEachRun
p968
aVRefreshOpenIOVs
p969
aVpfnPostfix
p970
aVpfnPrefix
p971
asg25
I00
sg26
Nsg960
g0
(g461
g2
Ntp972
Rp973
(dp974
g25
I00
sg31
I01
sg32
I00
sg19
(lp975
VauthenticationPath
p976
aVauthenticationSystem
p977
aVsecurity
p978
aVmessageLevel
p979
aVconnectionTimeout
p980
asg26
Nsg976
g0
(g162
g2
Ntp981
Rp982
(dp983
g25
I00
sg31
I00
sg32
I00
sg99
g36
sbsg977
g0
(g103
g2
Ntp984
Rp985
(dp986
g25
I00
sg31
I00
sg32
I00
sg99
I0
sbsg978
g0
(g162
g2
Ntp987
Rp988
(dp989
g25
I00
sg31
I00
sg32
I00
sg99
g36
sbsg979
g0
(g103
g2
Ntp990
Rp991
(dp992
g25
I00
sg31
I00
sg32
I00
sg99
I0
sbsg980
g0
(g103
g2
Ntp993
Rp994
(dp995
g25
I00
sg31
I00
sg32
I00
sg99
I0
sbsbsg32
I01
sg961
g0
(g162
g2
Ntp996
Rp997
(dp998
g25
I00
sg31
I01
sg32
I00
sg99
Vfrontier://FrontierProd/CMS_CONDITIONS
p999
sbsg962
g0
(g162
g2
Ntp1000
Rp1001
(dp1002
g25
I00
sg31
I01
sg32
I00
sg99
V124X_mcRun3_2022_realistic_postEE_v1
p1003
sbsg963
g0
(g162
g2
Ntp1004
Rp1005
(dp1006
g25
I00
sg31
I01
sg32
I00
sg99
g36
sbsg964
g0
(g153
g147
(lp1007
tp1008
Rp1009
(dp1010
g25
I00
sg31
I01
sg32
I00
sg152
I1
sbsg965
g0
(g158
g2
Ntp1011
Rp1012
(dp1013
g25
I00
sg31
I00
sg32
I00
sg99
I00
sbsg966
g0
(g158
g2
Ntp1014
Rp1015
(dp1016
g25
I00
sg31
I00
sg32
I00
sg99
I00
sbsg967
g0
(g158
g2
Ntp1017
Rp1018
(dp1019
g25
I00
sg31
I00
sg32
I00
sg99
I00
sbsg968
g0
(g158
g2
Ntp1020
Rp1021
(dp1022
g25
I00
sg31
I00
sg32
I00
sg99
I00
sbsg969
g0
(g158
g2
Ntp1023
Rp1024
(dp1025
g25
I00
sg31
I00
sg32
I00
sg99
I00
sbsg970
g0
(g162
g2
Ntp1026
Rp1027
(dp1028
g25
I00
sg31
I00
sg32
I00
sg99
g36
sbsg971
g0
(g162
g2
Ntp1029
Rp1030
(dp1031
g25
I00
sg31
I00
sg32
I00
sg99
g36
sbsg49
V/cvmfs/cms.cern.ch/slc7_amd64_gcc10/cms/cmssw-patch/CMSSW_12_4_11_patch3/python/CondCore/ESSources/CondDBESSource_cfi.py
p1032
sg51
I8
sg52
g954
sbsVHcalTimeSlewEP
p1033
g0
(g932
g2
Ntp1034
Rp1035
(dp1036
g17
g1033
sg19
(lp1037
VappendToDataLabel
p1038
aVtimeSlewParametersM2
p1039
aVtimeSlewParametersM3
p1040
asg25
I00
sg26
Nsg1038
g0
(g162
g2
Ntp1041
Rp1042
(dp1043
g25
I00
sg31
I01
sg32
I00
sg99
VHBHE
p1044
sbsg32
I00
sg1039
g0
(g153
g147
(lp1045
g0
(g461
g2
Ntp1046
Rp1047
(dp1048
g25
I00
sg31
I01
sg32
I00
sg19
(lp1049
Vtzero
p1050
aVslope
p1051
aVtmax
p1052
asg26
Nsg1050
g0
(g95
g2
Ntp1053
Rp1054
(dp1055
g25
I00
sg31
I01
sg32
I00
sg99
F23.960177
sbsg1051
g0
(g95
g2
Ntp1056
Rp1057
(dp1058
g25
I00
sg31
I01
sg32
I00
sg99
F-3.178648
sbsg1052
g0
(g95
g2
Ntp1059
Rp1060
(dp1061
g25
I00
sg31
I01
sg32
I00
sg99
F16.0
sbsbag0
(g461
g2
Ntp1062
Rp1063
(dp1064
g25
I00
sg31
I01
sg32
I00
sg19
(lp1065
g1050
ag1051
ag1052
asg26
Nsg1050
g0
(g95
g2
Ntp1066
Rp1067
(dp1068
g25
I00
sg31
I01
sg32
I00
sg99
F11.977461
sbsg1051
g0
(g95
g2
Ntp1069
Rp1070
(dp1071
g25
I00
sg31
I01
sg32
I00
sg99
F-1.5610227
sbsg1052
g0
(g95
g2
Ntp1072
Rp1073
(dp1074
g25
I00
sg31
I01
sg32
I00
sg99
F10.0
sbsbag0
(g461
g2
Ntp1075
Rp1076
(dp1077
g25
I00
sg31
I01
sg32
I00
sg19
(lp1078
g1050
ag1051
ag1052
asg26
Nsg1050
g0
(g95
g2
Ntp1079
Rp1080
(dp1081
g25
I00
sg31
I01
sg32
I00
sg99
F9.109694
sbsg1051
g0
(g95
g2
Ntp1082
Rp1083
(dp1084
g25
I00
sg31
I01
sg32
I00
sg99
F-1.075824
sbsg1052
g0
(g95
g2
Ntp1085
Rp1086
(dp1087
g25
I00
sg31
I01
sg32
I00
sg99
F6.25
sbsbatp1088
Rp1089
(dp1090
g25
I00
sg31
I01
sg32
I00
sg152
I1
sbsg1040
g0
(g153
g147
(lp1091
g0
(g461
g2
Ntp1092
Rp1093
(dp1094
g25
I00
sg31
I01
sg32
I00
sg19
(lp1095
Vcap
p1096
aVtspar0
p1097
aVtspar1
p1098
aVtspar2
p1099
aVtspar0_siPM
p1100
aVtspar1_siPM
p1101
aVtspar2_siPM
p1102
asg26
Nsg1096
g0
(g95
g2
Ntp1103
Rp1104
(dp1105
g25
I00
sg31
I01
sg32
I00
sg99
F6.0
sbsg1097
g0
(g95
g2
Ntp1106
Rp1107
(dp1108
g25
I00
sg31
I01
sg32
I00
sg99
F12.2999
sbsg1098
g0
(g95
g2
Ntp1109
Rp1110
(dp1111
g25
I00
sg31
I01
sg32
I00
sg99
F-2.19142
sbsg1099
g0
(g95
g2
Ntp1112
Rp1113
(dp1114
g25
I00
sg31
I01
sg32
I00
sg99
F0.0
sbsg1100
g0
(g95
g2
Ntp1115
Rp1116
(dp1117
g25
I00
sg31
I01
sg32
I00
sg99
F0.0
sbsg1101
g0
(g95
g2
Ntp1118
Rp1119
(dp1120
g25
I00
sg31
I01
sg32
I00
sg99
F0.0
sbsg1102
g0
(g95
g2
Ntp1121
Rp1122
(dp1123
g25
I00
sg31
I01
sg32
I00
sg99
F0.0
sbsbag0
(g461
g2
Ntp1124
Rp1125
(dp1126
g25
I00
sg31
I01
sg32
I00
sg19
(lp1127
g1096
ag1097
ag1098
ag1099
ag1100
ag1101
ag1102
asg26
Nsg1096
g0
(g95
g2
Ntp1128
Rp1129
(dp1130
g25
I00
sg31
I01
sg32
I00
sg99
F6.0
sbsg1097
g0
(g95
g2
Ntp1131
Rp1132
(dp1133
g25
I00
sg31
I01
sg32
I00
sg99
F15.5
sbsg1098
g0
(g95
g2
Ntp1134
Rp1135
(dp1136
g25
I00
sg31
I01
sg32
I00
sg99
F-3.2
sbsg1099
g0
(g95
g2
Ntp1137
Rp1138
(dp1139
g25
I00
sg31
I01
sg32
I00
sg99
F32.0
sbsg1100
g0
(g95
g2
Ntp1140
Rp1141
(dp1142
g25
I00
sg31
I01
sg32
I00
sg99
F0.0
sbsg1101
g0
(g95
g2
Ntp1143
Rp1144
(dp1145
g25
I00
sg31
I01
sg32
I00
sg99
F0.0
sbsg1102
g0
(g95
g2
Ntp1146
Rp1147
(dp1148
g25
I00
sg31
I01
sg32
I00
sg99
F0.0
sbsbag0
(g461
g2
Ntp1149
Rp1150
(dp1151
g25
I00
sg31
I01
sg32
I00
sg19
(lp1152
g1096
ag1097
ag1098
ag1099
ag1100
ag1101
ag1102
asg26
Nsg1096
g0
(g95
g2
Ntp1153
Rp1154
(dp1155
g25
I00
sg31
I01
sg32
I00
sg99
F6.0
sbsg1097
g0
(g95
g2
Ntp1156
Rp1157
(dp1158
g25
I00
sg31
I01
sg32
I00
sg99
F12.2999
sbsg1098
g0
(g95
g2
Ntp1159
Rp1160
(dp1161
g25
I00
sg31
I01
sg32
I00
sg99
F-2.19142
sbsg1099
g0
(g95
g2
Ntp1162
Rp1163
(dp1164
g25
I00
sg31
I01
sg32
I00
sg99
F0.0
sbsg1100
g0
(g95
g2
Ntp1165
Rp1166
(dp1167
g25
I00
sg31
I01
sg32
I00
sg99
F0.0
sbsg1101
g0
(g95
g2
Ntp1168
Rp1169
(dp1170
g25
I00
sg31
I01
sg32
I00
sg99
F0.0
sbsg1102
g0
(g95
g2
Ntp1171
Rp1172
(dp1173
g25
I00
sg31
I01
sg32
I00
sg99
F0.0
sbsbag0
(g461
g2
Ntp1174
Rp1175
(dp1176
g25
I00
sg31
I01
sg32
I00
sg19
(lp1177
g1096
ag1097
ag1098
ag1099
ag1100
ag1101
ag1102
asg26
Nsg1096
g0
(g95
g2
Ntp1178
Rp1179
(dp1180
g25
I00
sg31
I01
sg32
I00
sg99
F6.0
sbsg1097
g0
(g95
g2
Ntp1181
Rp1182
(dp1183
g25
I00
sg31
I01
sg32
I00
sg99
F12.2999
sbsg1098
g0
(g95
g2
Ntp1184
Rp1185
(dp1186
g25
I00
sg31
I01
sg32
I00
sg99
F-2.19142
sbsg1099
g0
(g95
g2
Ntp1187
Rp1188
(dp1189
g25
I00
sg31
I01
sg32
I00
sg99
F0.0
sbsg1100
g0
(g95
g2
Ntp1190
Rp1191
(dp1192
g25
I00
sg31
I01
sg32
I00
sg99
F0.0
sbsg1101
g0
(g95
g2
Ntp1193
Rp1194
(dp1195
g25
I00
sg31
I01
sg32
I00
sg99
F0.0
sbsg1102
g0
(g95
g2
Ntp1196
Rp1197
(dp1198
g25
I00
sg31
I01
sg32
I00
sg99
F0.0
sbsbatp1199
Rp1200
(dp1201
g25
I00
sg31
I01
sg32
I00
sg152
I1
sbsg49
V/cvmfs/cms.cern.ch/slc7_amd64_gcc10/cms/cmssw-patch/CMSSW_12_4_11_patch3/python/CalibCalorimetry/HcalPlugins/HcalTimeSlew_cff.py
p1202
sg51
I3
sg52
g1033
sbsVes_hardcode
p1203
g0
(g932
g2
Ntp1204
Rp1205
(dp1206
g17
VHcalHardcodeCalibrations
p1207
sg19
(lp1208
g964
aViLumi
p1209
aVHBRecalibration
p1210
aVHBreCalibCutoff
p1211
aVHBmeanenergies
p1212
aVHERecalibration
p1213
aVHEreCalibCutoff
p1214
aVHEmeanenergies
p1215
aVHFRecalibration
p1216
aVHFRecalParameterBlock
p1217
aVGainWidthsForTrigPrims
p1218
aVuseHBUpgrade
p1219
aVuseHEUpgrade
p1220
aVuseHFUpgrade
p1221
aVuseHOUpgrade
p1222
aVtestHFQIE10
p1223
aVtestHEPlan1
p1224
aVkillHE
p1225
aVuseLayer0Weight
p1226
aVuseIeta18depth1
p1227
aVhb
p1228
aVhe
p1229
aVhf
p1230
aVho
p1231
aVhbUpgrade
p1232
aVheUpgrade
p1233
aVhfUpgrade
p1234
aVSiPMCharacteristics
p1235
asg25
I00
sg26
Nsg964
g0
(g146
g147
(lp1236
VGainWidths
p1237
atp1238
Rp1239
(dp1240
g25
I00
sg31
I00
sg32
I00
sg152
I1
sbsg32
I00
sg1209
g0
(g95
g2
Ntp1241
Rp1242
(dp1243
g25
I00
sg31
I01
sg32
I00
sg99
F-1.0
sbsg1210
g0
(g158
g2
Ntp1244
Rp1245
(dp1246
g25
I00
sg31
I01
sg32
I00
sg99
I00
sbsg1211
g0
(g95
g2
Ntp1247
Rp1248
(dp1249
g25
I00
sg31
I01
sg32
I00
sg99
F20.0
sbsg1212
g0
(cFWCore.ParameterSet.Types
FileInPath
p1250
g2
Ntp1251
Rp1252
(dp1253
g25
I00
sg31
I01
sg32
I00
sg99
VCalibCalorimetry/HcalPlugins/data/meanenergiesHB.txt
p1254
sbsg1213
g0
(g158
g2
Ntp1255
Rp1256
(dp1257
g25
I00
sg31
I01
sg32
I00
sg99
I00
sbsg1214
g0
(g95
g2
Ntp1258
Rp1259
(dp1260
g25
I00
sg31
I01
sg32
I00
sg99
F20.0
sbsg1215
g0
(g1250
g2
Ntp1261
Rp1262
(dp1263
g25
I00
sg31
I01
sg32
I00
sg99
VCalibCalorimetry/HcalPlugins/data/meanenergiesHE.txt
p1264
sbsg1216
g0
(g158
g2
Ntp1265
Rp1266
(dp1267
g25
I00
sg31
I01
sg32
I00
sg99
I00
sbsg1217
g0
(g461
g2
Ntp1268
Rp1269
(dp1270
g25
I00
sg31
I01
sg32
I00
sg19
(lp1271
VHFdepthOneParameterA
p1272
aVHFdepthOneParameterB
p1273
aVHFdepthTwoParameterA
p1274
aVHFdepthTwoParameterB
p1275
asg26
Nsg1272
g0
(cFWCore.ParameterSet.Types
vdouble
p1276
g147
(lp1277
F0.004123
aF0.00602
aF0.008201
aF0.010489
aF0.013379
aF0.016997
aF0.021464
aF0.027371
aF0.034195
aF0.044807
aF0.058939
aF0.125497
atp1278
Rp1279
(dp1280
g25
I00
sg31
I01
sg32
I00
sbsg1273
g0
(g1276
g147
(lp1281
F-4e-06
aF-2e-06
aF0.0
aF4e-06
aF1.5e-05
aF2.6e-05
aF6.3e-05
aF8.4e-05
aF0.00016
aF0.000107
aF0.000425
aF0.000209
atp1282
Rp1283
(dp1284
g25
I00
sg31
I01
sg32
I00
sbsg1274
g0
(g1276
g147
(lp1285
F0.002861
aF0.004168
aF0.0064
aF0.008388
aF0.011601
aF0.014425
aF0.018633
aF0.023232
aF0.028274
aF0.035447
aF0.051579
aF0.086593
atp1286
Rp1287
(dp1288
g25
I00
sg31
I01
sg32
I00
sbsg1275
g0
(g1276
g147
(lp1289
F-2e-06
aF-0.0
aF-7e-06
aF-6e-06
aF-2e-06
aF1e-06
aF1.9e-05
aF3.1e-05
aF6.7e-05
aF1.2e-05
aF0.000157
aF-3e-06
atp1290
Rp1291
(dp1292
g25
I00
sg31
I01
sg32
I00
sbsg52
g1217
sbsg1218
g0
(g158
g2
Ntp1293
Rp1294
(dp1295
g25
I00
sg31
I01
sg32
I00
sg99
I00
sbsg1219
g0
(g158
g2
Ntp1296
Rp1297
(dp1298
g25
I00
sg31
I01
sg32
I00
sg99
I00
sbsg1220
g0
(g158
g2
Ntp1299
Rp1300
(dp1301
g25
I00
sg31
I01
sg32
I00
sg99
I00
sbsg1221
g0
(g158
g2
Ntp1302
Rp1303
(dp1304
g25
I00
sg31
I01
sg32
I00
sg99
I00
sbsg1222
g0
(g158
g2
Ntp1305
Rp1306
(dp1307
g25
I00
sg31
I01
sg32
I00
sg99
I01
sbsg1223
g0
(g158
g2
Ntp1308
Rp1309
(dp1310
g25
I00
sg31
I01
sg32
I00
sg99
I00
sbsg1224
g0
(g158
g2
Ntp1311
Rp1312
(dp1313
g25
I00
sg31
I01
sg32
I00
sg99
I00
sbsg1225
g0
(g158
g2
Ntp1314
Rp1315
(dp1316
g25
I00
sg31
I01
sg32
I00
sg99
I00
sbsg1226
g0
(g158
g2
Ntp1317
Rp1318
(dp1319
g25
I00
sg31
I01
sg32
I00
sg99
I00
sbsg1227
g0
(g158
g2
Ntp1320
Rp1321
(dp1322
g25
I00
sg31
I01
sg32
I00
sg99
I01
sbsg1228
g0
(g461
g2
Ntp1323
Rp1324
(dp1325
g25
I00
sg31
I01
sg32
I00
sg19
(lp1326
Vpedestal
p1327
aVpedestalWidth
p1328
aVgain
p1329
aVgainWidth
p1330
aVzsThreshold
p1331
aVqieType
p1332
aVqieOffset
p1333
aVqieSlope
p1334
aVmcShape
p1335
aVrecoShape
p1336
aVphotoelectronsToAnalog
p1337
aVdarkCurrent
p1338
aVnoiseCorrelation
p1339
aVdoRadiationDamage
p1340
asg26
Nsg1327
g0
(g95
g2
Ntp1341
Rp1342
(dp1343
g25
I00
sg31
I01
sg32
I00
sg99
F3.285
sbsg1328
g0
(g95
g2
Ntp1344
Rp1345
(dp1346
g25
I00
sg31
I01
sg32
I00
sg99
F0.809
sbsg1329
g0
(g1276
g147
(lp1347
F0.19
atp1348
Rp1349
(dp1350
g25
I00
sg31
I01
sg32
I00
sbsg1330
g0
(g1276
g147
(lp1351
F0.0
atp1352
Rp1353
(dp1354
g25
I00
sg31
I01
sg32
I00
sbsg1331
g0
(g103
g2
Ntp1355
Rp1356
(dp1357
g25
I00
sg31
I01
sg32
I00
sg99
I8
sbsg1332
g0
(g103
g2
Ntp1358
Rp1359
(dp1360
g25
I00
sg31
I01
sg32
I00
sg99
I0
sbsg1333
g0
(g1276
g147
(lp1361
F-0.49
aF1.8
aF7.2
aF37.9
atp1362
Rp1363
(dp1364
g25
I00
sg31
I01
sg32
I00
sbsg1334
g0
(g1276
g147
(lp1365
F0.912
aF0.917
aF0.922
aF0.923
atp1366
Rp1367
(dp1368
g25
I00
sg31
I01
sg32
I00
sbsg1335
g0
(g103
g2
Ntp1369
Rp1370
(dp1371
g25
I00
sg31
I01
sg32
I00
sg99
I125
sbsg1336
g0
(g103
g2
Ntp1372
Rp1373
(dp1374
g25
I00
sg31
I01
sg32
I00
sg99
I105
sbsg1337
g0
(g95
g2
Ntp1375
Rp1376
(dp1377
g25
I00
sg31
I01
sg32
I00
sg99
F0.3305
sbsg1338
g0
(g1276
g147
(lp1378
F0.0
atp1379
Rp1380
(dp1381
g25
I00
sg31
I01
sg32
I00
sbsg1339
g0
(g1276
g147
(lp1382
F0.0
atp1383
Rp1384
(dp1385
g25
I00
sg31
I01
sg32
I00
sbsg1340
g0
(g158
g2
Ntp1386
Rp1387
(dp1388
g25
I00
sg31
I01
sg32
I00
sg99
I00
sbsbsg1229
g0
(g461
g2
Ntp1389
Rp1390
(dp1391
g25
I00
sg31
I01
sg32
I00
sg19
(lp1392
g1327
ag1328
ag1329
ag1330
ag1331
ag1332
ag1333
ag1334
ag1335
ag1336
ag1337
ag1338
ag1339
ag1340
asg26
Nsg1327
g0
(g95
g2
Ntp1393
Rp1394
(dp1395
g25
I00
sg31
I01
sg32
I00
sg99
F3.163
sbsg1328
g0
(g95
g2
Ntp1396
Rp1397
(dp1398
g25
I00
sg31
I01
sg32
I00
sg99
F0.9698
sbsg1329
g0
(g1276
g147
(lp1399
F0.23
atp1400
Rp1401
(dp1402
g25
I00
sg31
I01
sg32
I00
sbsg1330
g0
(g1276
g147
(lp1403
I0
atp1404
Rp1405
(dp1406
g25
I00
sg31
I01
sg32
I00
sbsg1331
g0
(g103
g2
Ntp1407
Rp1408
(dp1409
g25
I00
sg31
I01
sg32
I00
sg99
I9
sbsg1332
g0
(g103
g2
Ntp1410
Rp1411
(dp1412
g25
I00
sg31
I01
sg32
I00
sg99
I0
sbsg1333
g0
(g1276
g147
(lp1413
F-0.38
aF2.0
aF7.6
aF39.6
atp1414
Rp1415
(dp1416
g25
I00
sg31
I01
sg32
I00
sbsg1334
g0
(g1276
g147
(lp1417
F0.912
aF0.916
aF0.92
aF0.922
atp1418
Rp1419
(dp1420
g25
I00
sg31
I01
sg32
I00
sbsg1335
g0
(g103
g2
Ntp1421
Rp1422
(dp1423
g25
I00
sg31
I01
sg32
I00
sg99
I125
sbsg1336
g0
(g103
g2
Ntp1424
Rp1425
(dp1426
g25
I00
sg31
I01
sg32
I00
sg99
I105
sbsg1337
g0
(g95
g2
Ntp1427
Rp1428
(dp1429
g25
I00
sg31
I01
sg32
I00
sg99
F0.3305
sbsg1338
g0
(g1276
g147
(lp1430
F0.0
atp1431
Rp1432
(dp1433
g25
I00
sg31
I01
sg32
I00
sbsg1339
g0
(g1276
g147
(lp1434
F0.0
atp1435
Rp1436
(dp1437
g25
I00
sg31
I01
sg32
I00
sbsg1340
g0
(g158
g2
Ntp1438
Rp1439
(dp1440
g25
I00
sg31
I01
sg32
I00
sg99
I00
sbsbsg1230
g0
(g461
g2
Ntp1441
Rp1442
(dp1443
g25
I00
sg31
I01
sg32
I00
sg19
(lp1444
g1327
ag1328
ag1329
ag1330
ag1331
ag1332
ag1333
ag1334
ag1335
ag1336
ag1337
ag1338
ag1339
ag1340
asg26
Nsg1327
g0
(g95
g2
Ntp1445
Rp1446
(dp1447
g25
I00
sg31
I01
sg32
I00
sg99
F9.354
sbsg1328
g0
(g95
g2
Ntp1448
Rp1449
(dp1450
g25
I00
sg31
I01
sg32
I00
sg99
F2.516
sbsg1329
g0
(g1276
g147
(lp1451
F0.14
aF0.135
atp1452
Rp1453
(dp1454
g25
I00
sg31
I01
sg32
I00
sbsg1330
g0
(g1276
g147
(lp1455
F0.0
aF0.0
atp1456
Rp1457
(dp1458
g25
I00
sg31
I01
sg32
I00
sbsg1331
g0
(g103
g2
Ntp1459
Rp1460
(dp1461
g25
I00
sg31
I01
sg32
I00
sg99
I-9999
sbsg1332
g0
(g103
g2
Ntp1462
Rp1463
(dp1464
g25
I00
sg31
I01
sg32
I00
sg99
I0
sbsg1333
g0
(g1276
g147
(lp1465
F-0.87
aF1.4
aF7.8
aF-29.6
atp1466
Rp1467
(dp1468
g25
I00
sg31
I01
sg32
I00
sbsg1334
g0
(g1276
g147
(lp1469
F0.359
aF0.358
aF0.36
aF0.367
atp1470
Rp1471
(dp1472
g25
I00
sg31
I01
sg32
I00
sbsg1335
g0
(g103
g2
Ntp1473
Rp1474
(dp1475
g25
I00
sg31
I01
sg32
I00
sg99
I301
sbsg1336
g0
(g103
g2
Ntp1476
Rp1477
(dp1478
g25
I00
sg31
I01
sg32
I00
sg99
I301
sbsg1337
g0
(g95
g2
Ntp1479
Rp1480
(dp1481
g25
I00
sg31
I01
sg32
I00
sg99
F0.0
sbsg1338
g0
(g1276
g147
(lp1482
F0.0
atp1483
Rp1484
(dp1485
g25
I00
sg31
I01
sg32
I00
sbsg1339
g0
(g1276
g147
(lp1486
F0.0
atp1487
Rp1488
(dp1489
g25
I00
sg31
I01
sg32
I00
sbsg1340
g0
(g158
g2
Ntp1490
Rp1491
(dp1492
g25
I00
sg31
I01
sg32
I00
sg99
I00
sbsbsg1231
g0
(g461
g2
Ntp1493
Rp1494
(dp1495
g25
I00
sg31
I01
sg32
I00
sg19
(lp1496
g1327
ag1328
ag1329
ag1330
ag1331
ag1332
ag1333
ag1334
ag1335
ag1336
ag1337
ag1338
ag1339
ag1340
asg26
Nsg1327
g0
(g95
g2
Ntp1497
Rp1498
(dp1499
g25
I00
sg31
I01
sg32
I00
sg99
F12.06
sbsg1328
g0
(g95
g2
Ntp1500
Rp1501
(dp1502
g25
I00
sg31
I01
sg32
I00
sg99
F0.6285
sbsg1329
g0
(g1276
g147
(lp1503
F0.006
aF0.0087
atp1504
Rp1505
(dp1506
g25
I00
sg31
I01
sg32
I00
sbsg1330
g0
(g1276
g147
(lp1507
F0.0
aF0.0
atp1508
Rp1509
(dp1510
g25
I00
sg31
I01
sg32
I00
sbsg1331
g0
(g103
g2
Ntp1511
Rp1512
(dp1513
g25
I00
sg31
I01
sg32
I00
sg99
I24
sbsg1332
g0
(g103
g2
Ntp1514
Rp1515
(dp1516
g25
I00
sg31
I01
sg32
I00
sg99
I0
sbsg1333
g0
(g1276
g147
(lp1517
F-0.44
aF1.4
aF7.1
aF38.5
atp1518
Rp1519
(dp1520
g25
I00
sg31
I01
sg32
I00
sbsg1334
g0
(g1276
g147
(lp1521
F0.907
aF0.915
aF0.92
aF0.921
atp1522
Rp1523
(dp1524
g25
I00
sg31
I01
sg32
I00
sbsg1335
g0
(g103
g2
Ntp1525
Rp1526
(dp1527
g25
I00
sg31
I01
sg32
I00
sg99
I201
sbsg1336
g0
(g103
g2
Ntp1528
Rp1529
(dp1530
g25
I00
sg31
I01
sg32
I00
sg99
I201
sbsg1337
g0
(g95
g2
Ntp1531
Rp1532
(dp1533
g25
I00
sg31
I01
sg32
I00
sg99
F4.0
sbsg1338
g0
(g1276
g147
(lp1534
F0.0
atp1535
Rp1536
(dp1537
g25
I00
sg31
I01
sg32
I00
sbsg1339
g0
(g1276
g147
(lp1538
F0.0
atp1539
Rp1540
(dp1541
g25
I00
sg31
I01
sg32
I00
sbsg1340
g0
(g158
g2
Ntp1542
Rp1543
(dp1544
g25
I00
sg31
I01
sg32
I00
sg99
I00
sbsbsg1232
g0
(g461
g2
Ntp1545
Rp1546
(dp1547
g25
I00
sg31
I01
sg32
I00
sg19
(lp1548
g1327
ag1328
ag1329
ag1330
ag1331
ag1332
ag1333
ag1334
ag1335
ag1336
ag1337
ag1338
ag1339
ag1340
aVradiationDamage
p1549
asg26
Nsg1327
g0
(g95
g2
Ntp1550
Rp1551
(dp1552
g25
I00
sg31
I01
sg32
I00
sg99
F17.3
sbsg1328
g0
(g95
g2
Ntp1553
Rp1554
(dp1555
g25
I00
sg31
I01
sg32
I00
sg99
F1.5
sbsg1329
g0
(g1276
g147
(lp1556
F0.0006252
atp1557
Rp1558
(dp1559
g25
I00
sg31
I01
sg32
I00
sbsg1330
g0
(g1276
g147
(lp1560
I0
atp1561
Rp1562
(dp1563
g25
I00
sg31
I01
sg32
I00
sbsg1331
g0
(g103
g2
Ntp1564
Rp1565
(dp1566
g25
I00
sg31
I01
sg32
I00
sg99
I16
sbsg1332
g0
(g103
g2
Ntp1567
Rp1568
(dp1569
g25
I00
sg31
I01
sg32
I00
sg99
I2
sbsg1333
g0
(g1276
g147
(lp1570
F0.0
aF0.0
aF0.0
aF0.0
atp1571
Rp1572
(dp1573
g25
I00
sg31
I01
sg32
I00
sbsg1334
g0
(g1276
g147
(lp1574
F0.05376
aF0.05376
aF0.05376
aF0.05376
atp1575
Rp1576
(dp1577
g25
I00
sg31
I01
sg32
I00
sbsg1335
g0
(g103
g2
Ntp1578
Rp1579
(dp1580
g25
I00
sg31
I01
sg32
I00
sg99
I206
sbsg1336
g0
(g103
g2
Ntp1581
Rp1582
(dp1583
g25
I00
sg31
I01
sg32
I00
sg99
I208
sbsg1337
g0
(g95
g2
Ntp1584
Rp1585
(dp1586
g25
I00
sg31
I01
sg32
I00
sg99
F40.0
sbsg1338
g0
(g1276
g147
(lp1587
F0.01
aF0.015
atp1588
Rp1589
(dp1590
g25
I00
sg31
I01
sg32
I00
sbsg1339
g0
(g1276
g147
(lp1591
F0.26
aF0.254
atp1592
Rp1593
(dp1594
g25
I00
sg31
I01
sg32
I00
sbsg1340
g0
(g158
g2
Ntp1595
Rp1596
(dp1597
g25
I00
sg31
I01
sg32
I00
sg99
I01
sbsg1549
g0
(g461
g2
Ntp1598
Rp1599
(dp1600
g25
I00
sg31
I01
sg32
I00
sg19
(lp1601
VtemperatureBase
p1602
aVtemperatureNew
p1603
aVintlumiOffset
p1604
aVdepVsTemp
p1605
aVintlumiToNeutrons
p1606
aVdepVsNeutrons
p1607
asg26
Nsg1602
g0
(g95
g2
Ntp1608
Rp1609
(dp1610
g25
I00
sg31
I01
sg32
I00
sg99
I20
sbsg1603
g0
(g95
g2
Ntp1611
Rp1612
(dp1613
g25
I00
sg31
I01
sg32
I00
sg99
I-5
sbsg1604
g0
(g95
g2
Ntp1614
Rp1615
(dp1616
g25
I00
sg31
I01
sg32
I00
sg99
I150
sbsg1605
g0
(g95
g2
Ntp1617
Rp1618
(dp1619
g25
I00
sg31
I01
sg32
I00
sg99
F0.0631
sbsg1606
g0
(g95
g2
Ntp1620
Rp1621
(dp1622
g25
I00
sg31
I01
sg32
I00
sg99
F367000000.0
sbsg1607
g0
(g1276
g147
(lp1623
F5.543e-10
aF8.012e-10
atp1624
Rp1625
(dp1626
g25
I00
sg31
I01
sg32
I00
sbsbsbsg1233
g0
(g461
g2
Ntp1627
Rp1628
(dp1629
g25
I00
sg31
I01
sg32
I00
sg19
(lp1630
g1327
ag1328
ag1329
ag1330
ag1331
ag1332
ag1333
ag1334
ag1335
ag1336
ag1337
ag1338
ag1339
ag1340
ag1549
asg26
Nsg1327
g0
(g95
g2
Ntp1631
Rp1632
(dp1633
g25
I00
sg31
I01
sg32
I00
sg99
F17.3
sbsg1328
g0
(g95
g2
Ntp1634
Rp1635
(dp1636
g25
I00
sg31
I01
sg32
I00
sg99
F1.5
sbsg1329
g0
(g1276
g147
(lp1637
F0.0006252
atp1638
Rp1639
(dp1640
g25
I00
sg31
I01
sg32
I00
sbsg1330
g0
(g1276
g147
(lp1641
I0
atp1642
Rp1643
(dp1644
g25
I00
sg31
I01
sg32
I00
sbsg1331
g0
(g103
g2
Ntp1645
Rp1646
(dp1647
g25
I00
sg31
I01
sg32
I00
sg99
I16
sbsg1332
g0
(g103
g2
Ntp1648
Rp1649
(dp1650
g25
I00
sg31
I01
sg32
I00
sg99
I2
sbsg1333
g0
(g1276
g147
(lp1651
F0.0
aF0.0
aF0.0
aF0.0
atp1652
Rp1653
(dp1654
g25
I00
sg31
I01
sg32
I00
sbsg1334
g0
(g1276
g147
(lp1655
F0.05376
aF0.05376
aF0.05376
aF0.05376
atp1656
Rp1657
(dp1658
g25
I00
sg31
I01
sg32
I00
sbsg1335
g0
(g103
g2
Ntp1659
Rp1660
(dp1661
g25
I00
sg31
I01
sg32
I00
sg99
I206
sbsg1336
g0
(g103
g2
Ntp1662
Rp1663
(dp1664
g25
I00
sg31
I01
sg32
I00
sg99
I208
sbsg1337
g0
(g95
g2
Ntp1665
Rp1666
(dp1667
g25
I00
sg31
I01
sg32
I00
sg99
F40.0
sbsg1338
g0
(g1276
g147
(lp1668
F0.01
aF0.015
atp1669
Rp1670
(dp1671
g25
I00
sg31
I01
sg32
I00
sbsg1339
g0
(g1276
g147
(lp1672
F0.26
aF0.254
atp1673
Rp1674
(dp1675
g25
I00
sg31
I01
sg32
I00
sbsg1340
g0
(g158
g2
Ntp1676
Rp1677
(dp1678
g25
I00
sg31
I01
sg32
I00
sg99
I01
sbsg1549
g0
(g461
g2
Ntp1679
Rp1680
(dp1681
g25
I00
sg31
I01
sg32
I00
sg19
(lp1682
g1602
ag1603
ag1604
ag1605
ag1606
ag1607
asg26
Nsg1602
g0
(g95
g2
Ntp1683
Rp1684
(dp1685
g25
I00
sg31
I01
sg32
I00
sg99
I20
sbsg1603
g0
(g95
g2
Ntp1686
Rp1687
(dp1688
g25
I00
sg31
I01
sg32
I00
sg99
I5
sbsg1604
g0
(g95
g2
Ntp1689
Rp1690
(dp1691
g25
I00
sg31
I01
sg32
I00
sg99
I75
sbsg1605
g0
(g95
g2
Ntp1692
Rp1693
(dp1694
g25
I00
sg31
I01
sg32
I00
sg99
F0.0631
sbsg1606
g0
(g95
g2
Ntp1695
Rp1696
(dp1697
g25
I00
sg31
I01
sg32
I00
sg99
F29200000.0
sbsg1607
g0
(g1276
g147
(lp1698
F5.543e-10
aF8.012e-10
atp1699
Rp1700
(dp1701
g25
I00
sg31
I01
sg32
I00
sbsbsbsg1234
g0
(g461
g2
Ntp1702
Rp1703
(dp1704
g25
I00
sg31
I01
sg32
I00
sg19
(lp1705
g1327
ag1328
ag1329
ag1330
ag1331
ag1332
ag1333
ag1334
ag1335
ag1336
ag1337
ag1338
ag1339
ag1340
asg26
Nsg1327
g0
(g95
g2
Ntp1706
Rp1707
(dp1708
g25
I00
sg31
I01
sg32
I00
sg99
F13.33
sbsg1328
g0
(g95
g2
Ntp1709
Rp1710
(dp1711
g25
I00
sg31
I01
sg32
I00
sg99
F3.33
sbsg1329
g0
(g1276
g147
(lp1712
F0.14
aF0.135
atp1713
Rp1714
(dp1715
g25
I00
sg31
I01
sg32
I00
sbsg1330
g0
(g1276
g147
(lp1716
F0.0
aF0.0
atp1717
Rp1718
(dp1719
g25
I00
sg31
I01
sg32
I00
sbsg1331
g0
(g103
g2
Ntp1720
Rp1721
(dp1722
g25
I00
sg31
I01
sg32
I00
sg99
I-9999
sbsg1332
g0
(g103
g2
Ntp1723
Rp1724
(dp1725
g25
I00
sg31
I01
sg32
I00
sg99
I1
sbsg1333
g0
(g1276
g147
(lp1726
F0.0697
aF-0.7405
aF12.38
aF-671.9
atp1727
Rp1728
(dp1729
g25
I00
sg31
I01
sg32
I00
sbsg1334
g0
(g1276
g147
(lp1730
F0.297
aF0.298
aF0.298
aF0.313
atp1731
Rp1732
(dp1733
g25
I00
sg31
I01
sg32
I00
sbsg1335
g0
(g103
g2
Ntp1734
Rp1735
(dp1736
g25
I00
sg31
I01
sg32
I00
sg99
I301
sbsg1336
g0
(g103
g2
Ntp1737
Rp1738
(dp1739
g25
I00
sg31
I01
sg32
I00
sg99
I301
sbsg1337
g0
(g95
g2
Ntp1740
Rp1741
(dp1742
g25
I00
sg31
I01
sg32
I00
sg99
F0.0
sbsg1338
g0
(g1276
g147
(lp1743
F0.0
atp1744
Rp1745
(dp1746
g25
I00
sg31
I01
sg32
I00
sbsg1339
g0
(g1276
g147
(lp1747
F0.0
atp1748
Rp1749
(dp1750
g25
I00
sg31
I01
sg32
I00
sbsg1340
g0
(g158
g2
Ntp1751
Rp1752
(dp1753
g25
I00
sg31
I01
sg32
I00
sg99
I00
sbsbsg1235
g0
(g153
g147
(lp1754
g0
(g461
g2
Ntp1755
Rp1756
(dp1757
g25
I00
sg31
I01
sg32
I00
sg19
(lp1758
Vpixels
p1759
aVcrosstalk
p1760
aVnonlin1
p1761
aVnonlin2
p1762
aVnonlin3
p1763
asg26
Nsg1759
g0
(g103
g2
Ntp1764
Rp1765
(dp1766
g25
I00
sg31
I01
sg32
I00
sg99
I36000
sbsg1760
g0
(g95
g2
Ntp1767
Rp1768
(dp1769
g25
I00
sg31
I01
sg32
I00
sg99
F0.0
sbsg1761
g0
(g95
g2
Ntp1770
Rp1771
(dp1772
g25
I00
sg31
I01
sg32
I00
sg99
F1.0
sbsg1762
g0
(g95
g2
Ntp1773
Rp1774
(dp1775
g25
I00
sg31
I01
sg32
I00
sg99
F0.0
sbsg1763
g0
(g95
g2
Ntp1776
Rp1777
(dp1778
g25
I00
sg31
I01
sg32
I00
sg99
F0.0
sbsbag0
(g461
g2
Ntp1779
Rp1780
(dp1781
g25
I00
sg31
I01
sg32
I00
sg19
(lp1782
g1759
ag1760
ag1761
ag1762
ag1763
asg26
Nsg1759
g0
(g103
g2
Ntp1783
Rp1784
(dp1785
g25
I00
sg31
I01
sg32
I00
sg99
I2500
sbsg1760
g0
(g95
g2
Ntp1786
Rp1787
(dp1788
g25
I00
sg31
I01
sg32
I00
sg99
F0.0
sbsg1761
g0
(g95
g2
Ntp1789
Rp1790
(dp1791
g25
I00
sg31
I01
sg32
I00
sg99
F1.0
sbsg1762
g0
(g95
g2
Ntp1792
Rp1793
(dp1794
g25
I00
sg31
I01
sg32
I00
sg99
F0.0
sbsg1763
g0
(g95
g2
Ntp1795
Rp1796
(dp1797
g25
I00
sg31
I01
sg32
I00
sg99
F0.0
sbsbag0
(g461
g2
Ntp1798
Rp1799
(dp1800
g25
I00
sg31
I01
sg32
I00
sg19
(lp1801
g1759
ag1760
ag1761
ag1762
ag1763
asg26
Nsg1759
g0
(g103
g2
Ntp1802
Rp1803
(dp1804
g25
I00
sg31
I01
sg32
I00
sg99
I27370
sbsg1760
g0
(g95
g2
Ntp1805
Rp1806
(dp1807
g25
I00
sg31
I01
sg32
I00
sg99
F0.17
sbsg1761
g0
(g95
g2
Ntp1808
Rp1809
(dp1810
g25
I00
sg31
I01
sg32
I00
sg99
F1.00985
sbsg1762
g0
(g95
g2
Ntp1811
Rp1812
(dp1813
g25
I00
sg31
I01
sg32
I00
sg99
F7.84089e-06
sbsg1763
g0
(g95
g2
Ntp1814
Rp1815
(dp1816
g25
I00
sg31
I01
sg32
I00
sg99
F2.86282e-10
sbsbag0
(g461
g2
Ntp1817
Rp1818
(dp1819
g25
I00
sg31
I01
sg32
I00
sg19
(lp1820
g1759
ag1760
ag1761
ag1762
ag1763
asg26
Nsg1759
g0
(g103
g2
Ntp1821
Rp1822
(dp1823
g25
I00
sg31
I01
sg32
I00
sg99
I38018
sbsg1760
g0
(g95
g2
Ntp1824
Rp1825
(dp1826
g25
I00
sg31
I01
sg32
I00
sg99
F0.196
sbsg1761
g0
(g95
g2
Ntp1827
Rp1828
(dp1829
g25
I00
sg31
I01
sg32
I00
sg99
F1.00546
sbsg1762
g0
(g95
g2
Ntp1830
Rp1831
(dp1832
g25
I00
sg31
I01
sg32
I00
sg99
F6.40239e-06
sbsg1763
g0
(g95
g2
Ntp1833
Rp1834
(dp1835
g25
I00
sg31
I01
sg32
I00
sg99
F1.27011e-10
sbsbag0
(g461
g2
Ntp1836
Rp1837
(dp1838
g25
I00
sg31
I01
sg32
I00
sg19
(lp1839
g1759
ag1760
ag1761
ag1762
ag1763
asg26
Nsg1759
g0
(g103
g2
Ntp1840
Rp1841
(dp1842
g25
I00
sg31
I01
sg32
I00
sg99
I27370
sbsg1760
g0
(g95
g2
Ntp1843
Rp1844
(dp1845
g25
I00
sg31
I01
sg32
I00
sg99
F0.17
sbsg1761
g0
(g95
g2
Ntp1846
Rp1847
(dp1848
g25
I00
sg31
I01
sg32
I00
sg99
F1.00985
sbsg1762
g0
(g95
g2
Ntp1849
Rp1850
(dp1851
g25
I00
sg31
I01
sg32
I00
sg99
F7.84089e-06
sbsg1763
g0
(g95
g2
Ntp1852
Rp1853
(dp1854
g25
I00
sg31
I01
sg32
I00
sg99
F2.86282e-10
sbsbag0
(g461
g2
Ntp1855
Rp1856
(dp1857
g25
I00
sg31
I01
sg32
I00
sg19
(lp1858
g1759
ag1760
ag1761
ag1762
ag1763
asg26
Nsg1759
g0
(g103
g2
Ntp1859
Rp1860
(dp1861
g25
I00
sg31
I01
sg32
I00
sg99
I38018
sbsg1760
g0
(g95
g2
Ntp1862
Rp1863
(dp1864
g25
I00
sg31
I01
sg32
I00
sg99
F0.196
sbsg1761
g0
(g95
g2
Ntp1865
Rp1866
(dp1867
g25
I00
sg31
I01
sg32
I00
sg99
F1.00546
sbsg1762
g0
(g95
g2
Ntp1868
Rp1869
(dp1870
g25
I00
sg31
I01
sg32
I00
sg99
F6.40239e-06
sbsg1763
g0
(g95
g2
Ntp1871
Rp1872
(dp1873
g25
I00
sg31
I01
sg32
I00
sg99
F1.27011e-10
sbsbag0
(g461
g2
Ntp1874
Rp1875
(dp1876
g25
I00
sg31
I01
sg32
I00
sg19
(lp1877
g1759
ag1760
ag1761
ag1762
ag1763
asg26
Nsg1759
g0
(g103
g2
Ntp1878
Rp1879
(dp1880
g25
I00
sg31
I01
sg32
I00
sg99
I0
sbsg1760
g0
(g95
g2
Ntp1881
Rp1882
(dp1883
g25
I00
sg31
I01
sg32
I00
sg99
F0.0
sbsg1761
g0
(g95
g2
Ntp1884
Rp1885
(dp1886
g25
I00
sg31
I01
sg32
I00
sg99
F1.0
sbsg1762
g0
(g95
g2
Ntp1887
Rp1888
(dp1889
g25
I00
sg31
I01
sg32
I00
sg99
F0.0
sbsg1763
g0
(g95
g2
Ntp1890
Rp1891
(dp1892
g25
I00
sg31
I01
sg32
I00
sg99
F0.0
sbsbatp1893
Rp1894
(dp1895
g25
I00
sg31
I01
sg32
I00
sg152
I1
sbsg49
V/cvmfs/cms.cern.ch/slc7_amd64_gcc10/cms/cmssw-patch/CMSSW_12_4_11_patch3/python/CalibCalorimetry/HcalPlugins/Hcal_Conditions_forGlobalTag_cff.py
p1896
sg51
I16
sg52
g1203
sbssV_Process__esproducers
p1897
(dp1898
VTransientTrackBuilderESProducer
p1899
g0
(cFWCore.ParameterSet.Modules
ESProducer
p1900
g2
Ntp1901
Rp1902
(dp1903
g17
g1899
sg19
(lp1904
VComponentName
p1905
asg25
I00
sg26
Nsg1905
g0
(g162
g2
Ntp1906
Rp1907
(dp1908
g25
I00
sg31
I01
sg32
I00
sg99
VTransientTrackBuilder
p1909
sbsg32
I00
sg49
g294
sg51
I55
sg52
g1899
sbsVCSCGeometryESModule
p1910
g0
(g1900
g2
Ntp1911
Rp1912
(dp1913
g17
g1910
sg19
(lp1914
VfromDDD
p1915
aVfromDD4hep
p1916
aValignmentsLabel
p1917
ag1038
aVuseRealWireGeometry
p1918
aVuseOnlyWiresInME1a
p1919
aVuseGangedStripsInME1a
p1920
aVuseCentreTIOffsets
p1921
aVapplyAlignment
p1922
aVdebugV
p1923
asg25
I00
sg26
Nsg1915
g0
(g158
g2
Ntp1924
Rp1925
(dp1926
g25
I00
sg31
I01
sg32
I00
sg99
I00
sbsg32
I00
sg1916
g0
(g158
g2
Ntp1927
Rp1928
(dp1929
g25
I00
sg31
I01
sg32
I00
sg99
I00
sbsg1917
g0
(g162
g2
Ntp1930
Rp1931
(dp1932
g25
I00
sg31
I01
sg32
I00
sg99
g36
sbsg1038
g0
(g162
g2
Ntp1933
Rp1934
(dp1935
g25
I00
sg31
I01
sg32
I00
sg99
g36
sbsg1918
g0
(g158
g2
Ntp1936
Rp1937
(dp1938
g25
I00
sg31
I01
sg32
I00
sg99
I01
sbsg1919
g0
(g158
g2
Ntp1939
Rp1940
(dp1941
g25
I00
sg31
I01
sg32
I00
sg99
I00
sbsg1920
g0
(g158
g2
Ntp1942
Rp1943
(dp1944
g25
I00
sg31
I01
sg32
I00
sg99
I01
sbsg1921
g0
(g158
g2
Ntp1945
Rp1946
(dp1947
g25
I00
sg31
I01
sg32
I00
sg99
I00
sbsg1922
g0
(g158
g2
Ntp1948
Rp1949
(dp1950
g25
I00
sg31
I01
sg32
I00
sg99
I01
sbsg1923
g0
(g158
g2
Ntp1951
Rp1952
(dp1953
g25
I00
sg31
I00
sg32
I00
sg99
I00
sbsg49
g294
sg51
I55
sg52
g1910
sbsVCaloGeometryBuilder
p1954
g0
(g1900
g2
Ntp1955
Rp1956
(dp1957
g17
g1954
sg19
(lp1958
VSelectedCalos
p1959
asg25
I00
sg26
Nsg1959
g0
(g146
g147
(lp1960
VHCAL
p1961
aVZDC
p1962
aVCASTOR
p1963
aVEcalBarrel
p1964
aVEcalEndcap
p1965
aVEcalPreshower
p1966
aVTOWER
p1967
atp1968
Rp1969
(dp1970
g25
I00
sg31
I01
sg32
I00
sg152
I1
sbsg32
I00
sg49
g294
sg51
I55
sg52
g1954
sbsVCaloTopologyBuilder
p1971
g0
(g1900
g2
Ntp1972
Rp1973
(dp1974
g17
g1971
sg19
(lp1975
sg25
I00
sg26
Nsg32
I00
sg49
g294
sg51
I55
sg52
g1971
sbsVCaloTowerGeometryFromDBEP
p1976
g0
(g1900
g2
Ntp1977
Rp1978
(dp1979
g17
g1976
sg19
(lp1980
g1922
asg25
I00
sg26
Nsg1922
g0
(g158
g2
Ntp1981
Rp1982
(dp1983
g25
I00
sg31
I01
sg32
I00
sg99
I00
sbsg32
I00
sg49
g294
sg51
I55
sg52
g1976
sbsVCaloTowerTopologyEP
p1984
g0
(g1900
g2
Ntp1985
Rp1986
(dp1987
g17
g1984
sg19
(lp1988
sg25
I00
sg26
Nsg32
I00
sg49
g294
sg51
I55
sg52
g1984
sbsVCastorGeometryFromDBEP
p1989
g0
(g1900
g2
Ntp1990
Rp1991
(dp1992
g17
g1989
sg19
(lp1993
g1922
asg25
I00
sg26
Nsg1922
g0
(g158
g2
Ntp1994
Rp1995
(dp1996
g25
I00
sg31
I01
sg32
I00
sg99
I00
sbsg32
I00
sg49
g294
sg51
I55
sg52
g1989
sbsVDTGeometryESModule
p1997
g0
(g1900
g2
Ntp1998
Rp1999
(dp2000
g17
g1997
sg19
(lp2001
g1915
ag1916
aVDDDetector
p2002
ag1917
ag1038
aVattribute
p2003
aVvalue
p2004
ag1922
asg25
I00
sg26
Nsg1915
g0
(g158
g2
Ntp2005
Rp2006
(dp2007
g25
I00
sg31
I01
sg32
I01
sg99
I00
sbsg32
I01
sg1916
g0
(g158
g2
Ntp2008
Rp2009
(dp2010
g25
I00
sg31
I01
sg32
I00
sg99
I00
sbsg2002
g0
(cFWCore.ParameterSet.Types
ESInputTag
p2011
g2
Ntp2012
Rp2013
(dp2014
g25
I00
sg31
I01
sg32
I00
sV_ESInputTag__moduleLabel
p2015
g36
sV_ESInputTag__data
p2016
g36
sbsg1917
g0
(g162
g2
Ntp2017
Rp2018
(dp2019
g25
I00
sg31
I01
sg32
I00
sg99
g36
sbsg1038
g0
(g162
g2
Ntp2020
Rp2021
(dp2022
g25
I00
sg31
I01
sg32
I00
sg99
g36
sbsg2003
g0
(g162
g2
Ntp2023
Rp2024
(dp2025
g25
I00
sg31
I01
sg32
I00
sg99
VMuStructure
p2026
sbsg2004
g0
(g162
g2
Ntp2027
Rp2028
(dp2029
g25
I00
sg31
I01
sg32
I00
sg99
VMuonBarrelDT
p2030
sbsg1922
g0
(g158
g2
Ntp2031
Rp2032
(dp2033
g25
I00
sg31
I01
sg32
I00
sg99
I01
sbsg49
g294
sg51
I55
sg52
g1997
sbsVEcalBarrelGeometryFromDBEP
p2034
g0
(g1900
g2
Ntp2035
Rp2036
(dp2037
g17
g2034
sg19
(lp2038
g1922
asg25
I00
sg26
Nsg1922
g0
(g158
g2
Ntp2039
Rp2040
(dp2041
g25
I00
sg31
I01
sg32
I01
sg99
I01
sbsg32
I01
sg49
g294
sg51
I55
sg52
g2034
sbsVEcalElectronicsMappingBuilder
p2042
g0
(g1900
g2
Ntp2043
Rp2044
(dp2045
g17
g2042
sg19
(lp2046
sg25
I00
sg26
Nsg32
I00
sg49
g294
sg51
I55
sg52
g2042
sbsVEcalEndcapGeometryFromDBEP
p2047
g0
(g1900
g2
Ntp2048
Rp2049
(dp2050
g17
g2047
sg19
(lp2051
g1922
asg25
I00
sg26
Nsg1922
g0
(g158
g2
Ntp2052
Rp2053
(dp2054
g25
I00
sg31
I01
sg32
I01
sg99
I01
sbsg32
I01
sg49
g294
sg51
I55
sg52
g2047
sbsVEcalPreshowerGeometryFromDBEP
p2055
g0
(g1900
g2
Ntp2056
Rp2057
(dp2058
g17
g2055
sg19
(lp2059
g1922
asg25
I00
sg26
Nsg1922
g0
(g158
g2
Ntp2060
Rp2061
(dp2062
g25
I00
sg31
I01
sg32
I01
sg99
I01
sbsg32
I01
sg49
g294
sg51
I55
sg52
g2055
sbsVEcalTrigTowerConstituentsMapBuilder
p2063
g0
(g1900
g2
Ntp2064
Rp2065
(dp2066
g17
g2063
sg19
(lp2067
VMapFile
p2068
asg25
I00
sg26
Nsg2068
g0
(g162
g2
Ntp2069
Rp2070
(dp2071
g25
I00
sg31
I00
sg32
I00
sg99
VGeometry/EcalMapping/data/EndCap_TTMap.txt
p2072
sbsg32
I00
sg49
g294
sg51
I55
sg52
g2063
sbsVGlobalTrackingGeometryESProducer
p2073
g0
(g1900
g2
Ntp2074
Rp2075
(dp2076
g17
g2073
sg19
(lp2077
sg25
I00
sg26
Nsg32
I00
sg49
g294
sg51
I55
sg52
g2073
sbsVHcalAlignmentEP
p2078
g0
(g1900
g2
Ntp2079
Rp2080
(dp2081
g17
g2078
sg19
(lp2082
sg25
I00
sg26
Nsg32
I00
sg49
g294
sg51
I55
sg52
g2078
sbsVHcalGeometryFromDBEP
p2083
g0
(g1900
g2
Ntp2084
Rp2085
(dp2086
g17
g2083
sg19
(lp2087
g1922
asg25
I00
sg26
Nsg1922
g0
(g158
g2
Ntp2088
Rp2089
(dp2090
g25
I00
sg31
I01
sg32
I01
sg99
I01
sbsg32
I01
sg49
g294
sg51
I55
sg52
g2083
sbsVMuonDetLayerGeometryESProducer
p2091
g0
(g1900
g2
Ntp2092
Rp2093
(dp2094
g17
g2091
sg19
(lp2095
sg25
I00
sg26
Nsg32
I00
sg49
g294
sg51
I55
sg52
g2091
sbsVRPCGeometryESModule
p2096
g0
(g1900
g2
Ntp2097
Rp2098
(dp2099
g17
g2096
sg19
(lp2100
g1915
ag1916
asg25
I00
sg26
Nsg1915
g0
(g158
g2
Ntp2101
Rp2102
(dp2103
g25
I00
sg31
I00
sg32
I00
sg99
I00
sbsg32
I00
sg1916
g0
(g158
g2
Ntp2104
Rp2105
(dp2106
g25
I00
sg31
I00
sg32
I00
sg99
I00
sbsg49
g294
sg51
I55
sg52
g2096
sbsVTrackerAdditionalParametersPerDet
p2107
g0
(g1900
g2
Ntp2108
Rp2109
(dp2110
g17
VTrackerAdditionalParametersPerDetESModule
p2111
sg19
(lp2112
g1038
asg25
I00
sg26
Nsg1038
g0
(g162
g2
Ntp2113
Rp2114
(dp2115
g25
I00
sg31
I01
sg32
I00
sg99
g36
sbsg32
I00
sg49
g294
sg51
I55
sg52
g2107
sbsVTrackerRecoGeometryESProducer
p2116
g0
(g1900
g2
Ntp2117
Rp2118
(dp2119
g17
g2116
sg19
(lp2120
VusePhase2Stacks
p2121
asg25
I00
sg26
Nsg2121
g0
(g158
g2
Ntp2122
Rp2123
(dp2124
g25
I00
sg31
I01
sg32
I00
sg99
I00
sbsg32
I00
sg49
g294
sg51
I55
sg52
g2116
sbsVZdcGeometryFromDBEP
p2125
g0
(g1900
g2
Ntp2126
Rp2127
(dp2128
g17
g2125
sg19
(lp2129
g1922
asg25
I00
sg26
Nsg1922
g0
(g158
g2
Ntp2130
Rp2131
(dp2132
g25
I00
sg31
I01
sg32
I00
sg99
I00
sbsg32
I00
sg49
g294
sg51
I55
sg52
g2125
sbsVfakeForIdealAlignment
p2133
g0
(g1900
g2
Ntp2134
Rp2135
(dp2136
g17
VFakeAlignmentProducer
p2137
sg19
(lp2138
g1038
asg25
I00
sg26
Nsg1038
g0
(g162
g2
Ntp2139
Rp2140
(dp2141
g25
I00
sg31
I01
sg32
I01
sg99
VfakeForIdeal
p2142
sbsg32
I01
sg49
V/cvmfs/cms.cern.ch/slc7_amd64_gcc10/cms/cmssw-patch/CMSSW_12_4_11_patch3/python/Alignment/CommonAlignmentProducer/fakeForIdealAlignmentProducer_cfi.py
p2143
sg51
I5
sg52
g2133
sbsVhcalDDDRecConstants
p2144
g0
(g1900
g2
Ntp2145
Rp2146
(dp2147
g17
VHcalDDDRecConstantsESModule
p2148
sg19
(lp2149
g1038
asg25
I00
sg26
Nsg1038
g0
(g162
g2
Ntp2150
Rp2151
(dp2152
g25
I00
sg31
I01
sg32
I00
sg99
g36
sbsg32
I00
sg49
g294
sg51
I55
sg52
g2144
sbsVhcalDDDSimConstants
p2153
g0
(g1900
g2
Ntp2154
Rp2155
(dp2156
g17
VHcalDDDSimConstantsESModule
p2157
sg19
(lp2158
g1038
asg25
I00
sg26
Nsg1038
g0
(g162
g2
Ntp2159
Rp2160
(dp2161
g25
I00
sg31
I01
sg32
I00
sg99
g36
sbsg32
I00
sg49
g294
sg51
I55
sg52
g2153
sbsVhcalTopologyIdeal
p2162
g0
(g1900
g2
Ntp2163
Rp2164
(dp2165
g17
VHcalTopologyIdealEP
p2166
sg19
(lp2167
VExclude
p2168
aVMergePosition
p2169
ag1038
asg25
I00
sg26
Nsg2168
g0
(g162
g2
Ntp2170
Rp2171
(dp2172
g25
I00
sg31
I00
sg32
I00
sg99
g36
sbsg32
I00
sg2169
g0
(g158
g2
Ntp2173
Rp2174
(dp2175
g25
I00
sg31
I00
sg32
I00
sg99
I00
sbsg1038
g0
(g162
g2
Ntp2176
Rp2177
(dp2178
g25
I00
sg31
I01
sg32
I00
sg99
g36
sbsg49
g294
sg51
I55
sg52
g2162
sbsVidealForDigiCSCGeometry
p2179
g0
(g1900
g2
Ntp2180
Rp2181
(dp2182
g17
g1910
sg19
(lp2183
g1915
ag1916
ag1917
ag1038
ag1918
ag1919
ag1920
ag1921
ag1922
ag1923
asg25
I00
sg26
Nsg1915
g0
(g158
g2
Ntp2184
Rp2185
(dp2186
g25
I00
sg31
I01
sg32
I00
sg99
I00
sbsg32
I01
sg1916
g0
(g158
g2
Ntp2187
Rp2188
(dp2189
g25
I00
sg31
I01
sg32
I00
sg99
I00
sbsg1917
g0
(g162
g2
Ntp2190
Rp2191
(dp2192
g25
I00
sg31
I01
sg32
I01
sg99
g2142
sbsg1038
g0
(g162
g2
Ntp2193
Rp2194
(dp2195
g25
I00
sg31
I01
sg32
I01
sg99
VidealForDigi
p2196
sbsg1918
g0
(g158
g2
Ntp2197
Rp2198
(dp2199
g25
I00
sg31
I01
sg32
I00
sg99
I01
sbsg1919
g0
(g158
g2
Ntp2200
Rp2201
(dp2202
g25
I00
sg31
I01
sg32
I00
sg99
I00
sbsg1920
g0
(g158
g2
Ntp2203
Rp2204
(dp2205
g25
I00
sg31
I01
sg32
I00
sg99
I01
sbsg1921
g0
(g158
g2
Ntp2206
Rp2207
(dp2208
g25
I00
sg31
I01
sg32
I00
sg99
I00
sbsg1922
g0
(g158
g2
Ntp2209
Rp2210
(dp2211
g25
I00
sg31
I01
sg32
I01
sg99
I00
sbsg1923
g0
(g158
g2
Ntp2212
Rp2213
(dp2214
g25
I00
sg31
I00
sg32
I00
sg99
I00
sbsg49
V/cvmfs/cms.cern.ch/slc7_amd64_gcc10/cms/cmssw-patch/CMSSW_12_4_11_patch3/python/Geometry/CSCGeometryBuilder/idealForDigiCscGeometryDB_cff.py
p2215
sg51
I8
sg52
g2179
sbsVidealForDigiDTGeometry
p2216
g0
(g1900
g2
Ntp2217
Rp2218
(dp2219
g17
g1997
sg19
(lp2220
g1915
ag1916
ag2002
ag1917
ag1038
ag2003
ag2004
ag1922
asg25
I00
sg26
Nsg1915
g0
(g158
g2
Ntp2221
Rp2222
(dp2223
g25
I00
sg31
I01
sg32
I01
sg99
I00
sbsg32
I01
sg1916
g0
(g158
g2
Ntp2224
Rp2225
(dp2226
g25
I00
sg31
I01
sg32
I00
sg99
I00
sbsg2002
g0
(g2011
g2
Ntp2227
Rp2228
(dp2229
g25
I00
sg31
I01
sg32
I00
sg2015
g36
sg2016
g36
sbsg1917
g0
(g162
g2
Ntp2230
Rp2231
(dp2232
g25
I00
sg31
I01
sg32
I01
sg99
g2142
sbsg1038
g0
(g162
g2
Ntp2233
Rp2234
(dp2235
g25
I00
sg31
I01
sg32
I01
sg99
g2196
sbsg2003
g0
(g162
g2
Ntp2236
Rp2237
(dp2238
g25
I00
sg31
I01
sg32
I00
sg99
g2026
sbsg2004
g0
(g162
g2
Ntp2239
Rp2240
(dp2241
g25
I00
sg31
I01
sg32
I00
sg99
g2030
sbsg1922
g0
(g158
g2
Ntp2242
Rp2243
(dp2244
g25
I00
sg31
I01
sg32
I01
sg99
I00
sbsg49
V/cvmfs/cms.cern.ch/slc7_amd64_gcc10/cms/cmssw-patch/CMSSW_12_4_11_patch3/python/Geometry/DTGeometryBuilder/idealForDigiDtGeometryDB_cff.py
p2245
sg51
I8
sg52
g2216
sbsVidealForDigiTrackerGeometry
p2246
g0
(g1900
g2
Ntp2247
Rp2248
(dp2249
g17
VTrackerDigiGeometryESModule
p2250
sg19
(lp2251
g1038
ag1915
ag1922
ag1917
asg25
I00
sg26
Nsg1038
g0
(g162
g2
Ntp2252
Rp2253
(dp2254
g25
I00
sg31
I01
sg32
I01
sg99
g2196
sbsg32
I01
sg1915
g0
(g158
g2
Ntp2255
Rp2256
(dp2257
g25
I00
sg31
I01
sg32
I00
sg99
I00
sbsg1922
g0
(g158
g2
Ntp2258
Rp2259
(dp2260
g25
I00
sg31
I01
sg32
I01
sg99
I00
sbsg1917
g0
(g162
g2
Ntp2261
Rp2262
(dp2263
g25
I00
sg31
I01
sg32
I01
sg99
g2142
sbsg49
V/cvmfs/cms.cern.ch/slc7_amd64_gcc10/cms/cmssw-patch/CMSSW_12_4_11_patch3/python/Geometry/TrackerGeometryBuilder/idealForDigiTrackerGeometryDB_cff.py
p2264
sg51
I8
sg52
g2246
sbsVmuonGeometryConstants
p2265
g0
(g1900
g2
Ntp2266
Rp2267
(dp2268
g17
VMuonGeometryConstantsESModule
p2269
sg19
(lp2270
g1916
ag1038
asg25
I00
sg26
Nsg1916
g0
(g158
g2
Ntp2271
Rp2272
(dp2273
g25
I00
sg31
I01
sg32
I00
sg99
I00
sbsg32
I00
sg1038
g0
(g162
g2
Ntp2274
Rp2275
(dp2276
g25
I00
sg31
I01
sg32
I00
sg99
g36
sbsg49
g294
sg51
I55
sg52
g2265
sbsVtrackerGeometryDB
p2277
g0
(g1900
g2
Ntp2278
Rp2279
(dp2280
g17
g2250
sg19
(lp2281
g1038
ag1915
ag1922
ag1917
asg25
I00
sg26
Nsg1038
g0
(g162
g2
Ntp2282
Rp2283
(dp2284
g25
I00
sg31
I01
sg32
I00
sg99
g36
sbsg32
I00
sg1915
g0
(g158
g2
Ntp2285
Rp2286
(dp2287
g25
I00
sg31
I01
sg32
I00
sg99
I00
sbsg1922
g0
(g158
g2
Ntp2288
Rp2289
(dp2290
g25
I00
sg31
I01
sg32
I00
sg99
I01
sbsg1917
g0
(g162
g2
Ntp2291
Rp2292
(dp2293
g25
I00
sg31
I01
sg32
I00
sg99
g36
sbsg49
g294
sg51
I55
sg52
g2277
sbsVtrackerNumberingGeometryDB
p2294
g0
(g1900
g2
Ntp2295
Rp2296
(dp2297
g17
VTrackerGeometricDetESModule
p2298
sg19
(lp2299
g1915
ag1916
ag1038
asg25
I00
sg26
Nsg1915
g0
(g158
g2
Ntp2300
Rp2301
(dp2302
g25
I00
sg31
I01
sg32
I00
sg99
I00
sbsg32
I00
sg1916
g0
(g158
g2
Ntp2303
Rp2304
(dp2305
g25
I00
sg31
I01
sg32
I00
sg99
I00
sbsg1038
g0
(g162
g2
Ntp2306
Rp2307
(dp2308
g25
I00
sg31
I01
sg32
I00
sg99
g36
sbsg49
g294
sg51
I55
sg52
g2294
sbsVtrackerTopology
p2309
g0
(g1900
g2
Ntp2310
Rp2311
(dp2312
g17
VTrackerTopologyEP
p2313
sg19
(lp2314
g1038
asg25
I00
sg26
Nsg1038
g0
(g162
g2
Ntp2315
Rp2316
(dp2317
g25
I00
sg31
I01
sg32
I00
sg99
g36
sbsg32
I00
sg49
g294
sg51
I55
sg52
g2309
sbsVCastorDbProducer
p2318
g0
(g1900
g2
Ntp2319
Rp2320
(dp2321
g17
g2318
sg19
(lp2322
g1038
asg25
I00
sg26
Nsg1038
g0
(g162
g2
Ntp2323
Rp2324
(dp2325
g25
I00
sg31
I01
sg32
I00
sg99
g36
sbsg32
I00
sg49
g294
sg51
I55
sg52
g2318
sbsVEcalLaserCorrectionService
p2326
g0
(g1900
g2
Ntp2327
Rp2328
(dp2329
g17
g2326
sg19
(lp2330
VmaxExtrapolationTimeInSec
p2331
asg25
I00
sg26
Nsg2331
g0
(g467
g2
Ntp2332
Rp2333
(dp2334
g25
I00
sg31
I01
sg32
I00
sg99
I0
sbsg32
I00
sg49
g294
sg51
I55
sg52
g2326
sbsVEcalLaserCorrectionServiceMC
p2335
g0
(g1900
g2
Ntp2336
Rp2337
(dp2338
g17
g2335
sg19
(lp2339
g1038
asg25
I00
sg26
Nsg1038
g0
(g162
g2
Ntp2340
Rp2341
(dp2342
g25
I00
sg31
I01
sg32
I00
sg99
g36
sbsg32
I00
sg49
g294
sg51
I55
sg52
g2335
sbsVSiStripRecHitMatcherESProducer
p2343
g0
(g1900
g2
Ntp2344
Rp2345
(dp2346
g17
g2343
sg19
(lp2347
g1905
aVNSigmaInside
p2348
aVPreFilter
p2349
asg25
I00
sg26
Nsg1905
g0
(g162
g2
Ntp2350
Rp2351
(dp2352
g25
I00
sg31
I01
sg32
I00
sg99
VStandardMatcher
p2353
sbsg32
I00
sg2348
g0
(g95
g2
Ntp2354
Rp2355
(dp2356
g25
I00
sg31
I01
sg32
I00
sg99
F3.0
sbsg2349
g0
(g158
g2
Ntp2357
Rp2358
(dp2359
g25
I00
sg31
I01
sg32
I00
sg99
I00
sbsg49
g294
sg51
I55
sg52
g2343
sbsVStripCPEfromTrackAngleESProducer
p2360
g0
(g1900
g2
Ntp2361
Rp2362
(dp2363
g17
VStripCPEESProducer
p2364
sg19
(lp2365
g1905
aVComponentType
p2366
aVparameters
p2367
asg25
I00
sg26
Nsg1905
g0
(g162
g2
Ntp2368
Rp2369
(dp2370
g25
I00
sg31
I01
sg32
I01
sg99
VStripCPEfromTrackAngle
p2371
sbsg32
I00
sg2366
g0
(g162
g2
Ntp2372
Rp2373
(dp2374
g25
I00
sg31
I01
sg32
I01
sg99
g2371
sbsg2367
g0
(g461
g2
Ntp2375
Rp2376
(dp2377
g25
I00
sg31
I01
sg32
I00
sg19
(lp2378
VmLC_P0
p2379
aVmLC_P1
p2380
aVmLC_P2
p2381
aVmTIB_P0
p2382
aVmTIB_P1
p2383
aVmTOB_P0
p2384
aVmTOB_P1
p2385
aVmTID_P0
p2386
aVmTID_P1
p2387
aVmTEC_P0
p2388
aVmTEC_P1
p2389
aVuseLegacyError
p2390
aVmaxChgOneMIP
p2391
asg26
Nsg2379
g0
(g95
g2
Ntp2392
Rp2393
(dp2394
g25
I00
sg31
I01
sg32
I00
sg99
F-0.326
sbsg2380
g0
(g95
g2
Ntp2395
Rp2396
(dp2397
g25
I00
sg31
I01
sg32
I00
sg99
F0.618
sbsg2381
g0
(g95
g2
Ntp2398
Rp2399
(dp2400
g25
I00
sg31
I01
sg32
I00
sg99
F0.3
sbsg2382
g0
(g95
g2
Ntp2401
Rp2402
(dp2403
g25
I00
sg31
I01
sg32
I00
sg99
F-0.742
sbsg2383
g0
(g95
g2
Ntp2404
Rp2405
(dp2406
g25
I00
sg31
I01
sg32
I00
sg99
F0.202
sbsg2384
g0
(g95
g2
Ntp2407
Rp2408
(dp2409
g25
I00
sg31
I01
sg32
I00
sg99
F-1.026
sbsg2385
g0
(g95
g2
Ntp2410
Rp2411
(dp2412
g25
I00
sg31
I01
sg32
I00
sg99
F0.253
sbsg2386
g0
(g95
g2
Ntp2413
Rp2414
(dp2415
g25
I00
sg31
I01
sg32
I00
sg99
F-1.427
sbsg2387
g0
(g95
g2
Ntp2416
Rp2417
(dp2418
g25
I00
sg31
I01
sg32
I00
sg99
F0.433
sbsg2388
g0
(g95
g2
Ntp2419
Rp2420
(dp2421
g25
I00
sg31
I01
sg32
I00
sg99
F-1.885
sbsg2389
g0
(g95
g2
Ntp2422
Rp2423
(dp2424
g25
I00
sg31
I01
sg32
I00
sg99
F0.471
sbsg2390
g0
(g158
g2
Ntp2425
Rp2426
(dp2427
g25
I00
sg31
I01
sg32
I00
sg99
I00
sbsg2391
g0
(g95
g2
Ntp2428
Rp2429
(dp2430
g25
I00
sg31
I01
sg32
I00
sg99
F6000.0
sbsbsg49
V/cvmfs/cms.cern.ch/slc7_amd64_gcc10/cms/cmssw-patch/CMSSW_12_4_11_patch3/python/RecoLocalTracker/SiStripRecHitConverter/StripCPEfromTrackAngle_cfi.py
p2431
sg51
I4
sg52
g2360
sbsVctppsBeamParametersFromLHCInfoESSource
p2432
g0
(g1900
g2
Ntp2433
Rp2434
(dp2435
g17
VCTPPSBeamParametersFromLHCInfoESSource
p2436
sg19
(lp2437
VlhcInfoLabel
p2438
aVbeamDivX45
p2439
aVbeamDivY45
p2440
aVbeamDivX56
p2441
aVbeamDivY56
p2442
aVvtxOffsetX45
p2443
aVvtxOffsetY45
p2444
aVvtxOffsetZ45
p2445
aVvtxOffsetX56
p2446
aVvtxOffsetY56
p2447
aVvtxOffsetZ56
p2448
aVvtxStddevX
p2449
aVvtxStddevY
p2450
aVvtxStddevZ
p2451
ag1038
asg25
I00
sg26
Nsg2438
g0
(g162
g2
Ntp2452
Rp2453
(dp2454
g25
I00
sg31
I01
sg32
I00
sg99
g36
sbsg32
I00
sg2439
g0
(g95
g2
Ntp2455
Rp2456
(dp2457
g25
I00
sg31
I01
sg32
I00
sg99
F0.1
sbsg2440
g0
(g95
g2
Ntp2458
Rp2459
(dp2460
g25
I00
sg31
I01
sg32
I00
sg99
F0.1
sbsg2441
g0
(g95
g2
Ntp2461
Rp2462
(dp2463
g25
I00
sg31
I01
sg32
I00
sg99
F0.1
sbsg2442
g0
(g95
g2
Ntp2464
Rp2465
(dp2466
g25
I00
sg31
I01
sg32
I00
sg99
F0.1
sbsg2443
g0
(g95
g2
Ntp2467
Rp2468
(dp2469
g25
I00
sg31
I01
sg32
I00
sg99
F0.01
sbsg2444
g0
(g95
g2
Ntp2470
Rp2471
(dp2472
g25
I00
sg31
I01
sg32
I00
sg99
F0.01
sbsg2445
g0
(g95
g2
Ntp2473
Rp2474
(dp2475
g25
I00
sg31
I01
sg32
I00
sg99
F0.01
sbsg2446
g0
(g95
g2
Ntp2476
Rp2477
(dp2478
g25
I00
sg31
I01
sg32
I00
sg99
F0.01
sbsg2447
g0
(g95
g2
Ntp2479
Rp2480
(dp2481
g25
I00
sg31
I01
sg32
I00
sg99
F0.01
sbsg2448
g0
(g95
g2
Ntp2482
Rp2483
(dp2484
g25
I00
sg31
I01
sg32
I00
sg99
F0.01
sbsg2449
g0
(g95
g2
Ntp2485
Rp2486
(dp2487
g25
I00
sg31
I01
sg32
I00
sg99
F0.02
sbsg2450
g0
(g95
g2
Ntp2488
Rp2489
(dp2490
g25
I00
sg31
I01
sg32
I00
sg99
F0.02
sbsg2451
g0
(g95
g2
Ntp2491
Rp2492
(dp2493
g25
I00
sg31
I01
sg32
I00
sg99
F0.02
sbsg1038
g0
(g162
g2
Ntp2494
Rp2495
(dp2496
g25
I00
sg31
I01
sg32
I00
sg99
g36
sbsg49
g294
sg51
I55
sg52
g2432
sbsVctppsInterpolatedOpticalFunctionsESSource
p2497
g0
(g1900
g2
Ntp2498
Rp2499
(dp2500
g17
VCTPPSInterpolatedOpticalFunctionsESSource
p2501
sg19
(lp2502
g2438
aVopticsLabel
p2503
ag1038
asg25
I00
sg26
Nsg2438
g0
(g162
g2
Ntp2504
Rp2505
(dp2506
g25
I00
sg31
I01
sg32
I00
sg99
g36
sbsg32
I01
sg2503
g0
(g162
g2
Ntp2507
Rp2508
(dp2509
g25
I00
sg31
I01
sg32
I00
sg99
g36
sbsg1038
g0
(g162
g2
Ntp2510
Rp2511
(dp2512
g25
I00
sg31
I01
sg32
I00
sg99
g36
sbsg49
g294
sg51
I55
sg52
g2497
sbsVhcal_db_producer
p2513
g0
(g1900
g2
Ntp2514
Rp2515
(dp2516
g17
VHcalDbProducer
p2517
sg19
(lp2518
Vdump
p2519
aVfile
p2520
asg25
I00
sg26
Nsg2519
g0
(g146
g147
(lp2521
g36
atp2522
Rp2523
(dp2524
g25
I00
sg31
I00
sg32
I00
sg152
I1
sbsg32
I00
sg2520
g0
(g162
g2
Ntp2525
Rp2526
(dp2527
g25
I00
sg31
I00
sg32
I00
sg99
g36
sbsg49
g294
sg51
I55
sg52
g2513
sbsVmultipleScatteringParametrisationMakerESProducer
p2528
g0
(g1900
g2
Ntp2529
Rp2530
(dp2531
g17
VMultipleScatteringParametrisationMakerESProducer
p2532
sg19
(lp2533
g1038
asg25
I00
sg26
Nsg1038
g0
(g162
g2
Ntp2534
Rp2535
(dp2536
g25
I00
sg31
I01
sg32
I00
sg99
g36
sbsg32
I00
sg49
g294
sg51
I55
sg52
g2528
sbsVsiPixelQualityESProducer
p2537
g0
(g1900
g2
Ntp2538
Rp2539
(dp2540
g17
VSiPixelQualityESProducer
p2541
sg19
(lp2542
VsiPixelQualityLabel
p2543
aVsiPixelQualityLabel_RawToDigi
p2544
aVListOfRecordToMerge
p2545
asg25
I00
sg26
Nsg2543
g0
(g162
g2
Ntp2546
Rp2547
(dp2548
g25
I00
sg31
I01
sg32
I00
sg99
g36
sbsg32
I01
sg2544
g0
(g162
g2
Ntp2549
Rp2550
(dp2551
g25
I00
sg31
I01
sg32
I00
sg99
g36
sbsg49
g294
sg51
I55
sg2545
g0
(g153
g147
(lp2552
g0
(g461
g2
Ntp2553
Rp2554
(dp2555
g25
I00
sg31
I01
sg32
I00
sg19
(lp2556
Vrecord
p2557
aVtag
p2558
asg26
Nsg2557
g0
(g162
g2
Ntp2559
Rp2560
(dp2561
g25
I00
sg31
I01
sg32
I00
sg99
VSiPixelQualityFromDbRcd
p2562
sbsg2558
g0
(g162
g2
Ntp2563
Rp2564
(dp2565
g25
I00
sg31
I01
sg32
I00
sg99
g36
sbsbag0
(g461
g2
Ntp2566
Rp2567
(dp2568
g25
I00
sg31
I01
sg32
I00
sg19
(lp2569
g2557
ag2558
asg26
Nsg2557
g0
(g162
g2
Ntp2570
Rp2571
(dp2572
g25
I00
sg31
I01
sg32
I00
sg99
VSiPixelDetVOffRcd
p2573
sbsg2558
g0
(g162
g2
Ntp2574
Rp2575
(dp2576
g25
I00
sg31
I01
sg32
I00
sg99
g36
sbsbatp2577
Rp2578
(dp2579
g25
I00
sg31
I01
sg32
I00
sg152
I1
sbsg52
g2537
sbsVsiStripBackPlaneCorrectionDepESProducer
p2580
g0
(g1900
g2
Ntp2581
Rp2582
(dp2583
g17
VSiStripBackPlaneCorrectionDepESProducer
p2584
sg19
(lp2585
VLatencyRecord
p2586
aVBackPlaneCorrectionPeakMode
p2587
aVBackPlaneCorrectionDeconvMode
p2588
asg25
I00
sg26
Nsg2586
g0
(g461
g2
Ntp2589
Rp2590
(dp2591
g25
I00
sg31
I01
sg32
I00
sg19
(lp2592
g2557
aVlabel
p2593
asg26
Nsg2557
g0
(g162
g2
Ntp2594
Rp2595
(dp2596
g25
I00
sg31
I01
sg32
I00
sg99
VSiStripLatencyRcd
p2597
sbsg2593
g0
(g162
g2
Ntp2598
Rp2599
(dp2600
g25
I00
sg31
I00
sg32
I00
sg99
g36
sbsbsg32
I00
sg2587
g0
(g461
g2
Ntp2601
Rp2602
(dp2603
g25
I00
sg31
I01
sg32
I00
sg19
(lp2604
g2557
ag2593
asg26
Nsg2557
g0
(g162
g2
Ntp2605
Rp2606
(dp2607
g25
I00
sg31
I01
sg32
I00
sg99
VSiStripBackPlaneCorrectionRcd
p2608
sbsg2593
g0
(g162
g2
Ntp2609
Rp2610
(dp2611
g25
I00
sg31
I00
sg32
I00
sg99
Vpeak
p2612
sbsbsg2588
g0
(g461
g2
Ntp2613
Rp2614
(dp2615
g25
I00
sg31
I01
sg32
I00
sg19
(lp2616
g2557
ag2593
asg26
Nsg2557
g0
(g162
g2
Ntp2617
Rp2618
(dp2619
g25
I00
sg31
I01
sg32
I00
sg99
g2608
sbsg2593
g0
(g162
g2
Ntp2620
Rp2621
(dp2622
g25
I00
sg31
I00
sg32
I00
sg99
Vdeconvolution
p2623
sbsbsg49
g294
sg51
I55
sg52
g2580
sbsVsiStripGainESProducer
p2624
g0
(g1900
g2
Ntp2625
Rp2626
(dp2627
g17
VSiStripGainESProducer
p2628
sg19
(lp2629
g1038
aVprintDebug
p2630
aVAutomaticNormalization
p2631
aVAPVGain
p2632
asg25
I00
sg26
Nsg1038
g0
(g162
g2
Ntp2633
Rp2634
(dp2635
g25
I00
sg31
I01
sg32
I00
sg99
g36
sbsg32
I00
sg2630
g0
(g158
g2
Ntp2636
Rp2637
(dp2638
g25
I00
sg31
I00
sg32
I00
sg99
I00
sbsg2631
g0
(g158
g2
Ntp2639
Rp2640
(dp2641
g25
I00
sg31
I01
sg32
I00
sg99
I00
sbsg2632
g0
(g153
g147
(lp2642
g0
(g461
g2
Ntp2643
Rp2644
(dp2645
g25
I00
sg31
I01
sg32
I00
sg19
(lp2646
VRecord
p2647
aVLabel
p2648
aVNormalizationFactor
p2649
asg26
Nsg2647
g0
(g162
g2
Ntp2650
Rp2651
(dp2652
g25
I00
sg31
I01
sg32
I00
sg99
VSiStripApvGainRcd
p2653
sbsg2648
g0
(g162
g2
Ntp2654
Rp2655
(dp2656
g25
I00
sg31
I00
sg32
I00
sg99
g36
sbsg2649
g0
(g95
g2
Ntp2657
Rp2658
(dp2659
g25
I00
sg31
I00
sg32
I00
sg99
F1.0
sbsbag0
(g461
g2
Ntp2660
Rp2661
(dp2662
g25
I00
sg31
I01
sg32
I00
sg19
(lp2663
g2647
ag2648
ag2649
asg26
Nsg2647
g0
(g162
g2
Ntp2664
Rp2665
(dp2666
g25
I00
sg31
I01
sg32
I00
sg99
VSiStripApvGain2Rcd
p2667
sbsg2648
g0
(g162
g2
Ntp2668
Rp2669
(dp2670
g25
I00
sg31
I00
sg32
I00
sg99
g36
sbsg2649
g0
(g95
g2
Ntp2671
Rp2672
(dp2673
g25
I00
sg31
I00
sg32
I00
sg99
F1.0
sbsbatp2674
Rp2675
(dp2676
g25
I00
sg31
I01
sg32
I00
sg152
I1
sbsg49
g294
sg51
I55
sg52
g2624
sbsVsiStripLorentzAngleDepESProducer
p2677
g0
(g1900
g2
Ntp2678
Rp2679
(dp2680
g17
VSiStripLorentzAngleDepESProducer
p2681
sg19
(lp2682
g2586
aVLorentzAnglePeakMode
p2683
aVLorentzAngleDeconvMode
p2684
asg25
I00
sg26
Nsg2586
g0
(g461
g2
Ntp2685
Rp2686
(dp2687
g25
I00
sg31
I01
sg32
I00
sg19
(lp2688
g2557
ag2593
asg26
Nsg2557
g0
(g162
g2
Ntp2689
Rp2690
(dp2691
g25
I00
sg31
I01
sg32
I00
sg99
g2597
sbsg2593
g0
(g162
g2
Ntp2692
Rp2693
(dp2694
g25
I00
sg31
I00
sg32
I00
sg99
g36
sbsbsg32
I00
sg2683
g0
(g461
g2
Ntp2695
Rp2696
(dp2697
g25
I00
sg31
I01
sg32
I00
sg19
(lp2698
g2557
ag2593
asg26
Nsg2557
g0
(g162
g2
Ntp2699
Rp2700
(dp2701
g25
I00
sg31
I01
sg32
I00
sg99
VSiStripLorentzAngleRcd
p2702
sbsg2593
g0
(g162
g2
Ntp2703
Rp2704
(dp2705
g25
I00
sg31
I00
sg32
I00
sg99
g2612
sbsbsg2684
g0
(g461
g2
Ntp2706
Rp2707
(dp2708
g25
I00
sg31
I01
sg32
I00
sg19
(lp2709
g2557
ag2593
asg26
Nsg2557
g0
(g162
g2
Ntp2710
Rp2711
(dp2712
g25
I00
sg31
I01
sg32
I00
sg99
g2702
sbsg2593
g0
(g162
g2
Ntp2713
Rp2714
(dp2715
g25
I00
sg31
I00
sg32
I00
sg99
g2623
sbsbsg49
g294
sg51
I55
sg52
g2677
sbsVsiStripQualityESProducer
p2716
g0
(g1900
g2
Ntp2717
Rp2718
(dp2719
g17
VSiStripQualityESProducer
p2720
sg19
(lp2721
g1038
ag2545
aVReduceGranularity
p2722
aVThresholdForReducedGranularity
p2723
aVPrintDebugOutput
p2724
aVUseEmptyRunInfo
p2725
asg25
I00
sg26
Nsg1038
g0
(g162
g2
Ntp2726
Rp2727
(dp2728
g25
I00
sg31
I01
sg32
I00
sg99
g36
sbsg32
I01
sg2545
g0
(g153
g147
(lp2729
g0
(g461
g2
Ntp2730
Rp2731
(dp2732
g25
I00
sg31
I01
sg32
I00
sg19
(lp2733
g2557
ag2558
asg26
Nsg2557
g0
(g162
g2
Ntp2734
Rp2735
(dp2736
g25
I00
sg31
I01
sg32
I00
sg99
VSiStripDetVOffRcd
p2737
sbsg2558
g0
(g162
g2
Ntp2738
Rp2739
(dp2740
g25
I00
sg31
I01
sg32
I00
sg99
g36
sbsbag0
(g461
g2
Ntp2741
Rp2742
(dp2743
g25
I00
sg31
I01
sg32
I00
sg19
(lp2744
g2557
ag2558
asg26
Nsg2557
g0
(g162
g2
Ntp2745
Rp2746
(dp2747
g25
I00
sg31
I01
sg32
I00
sg99
VSiStripDetCablingRcd
p2748
sbsg2558
g0
(g162
g2
Ntp2749
Rp2750
(dp2751
g25
I00
sg31
I01
sg32
I00
sg99
g36
sbsbag0
(g461
g2
Ntp2752
Rp2753
(dp2754
g25
I00
sg31
I01
sg32
I00
sg19
(lp2755
g2557
ag2558
asg26
Nsg2557
g0
(g162
g2
Ntp2756
Rp2757
(dp2758
g25
I00
sg31
I01
sg32
I00
sg99
VRunInfoRcd
p2759
sbsg2558
g0
(g162
g2
Ntp2760
Rp2761
(dp2762
g25
I00
sg31
I01
sg32
I00
sg99
g36
sbsbag0
(g461
g2
Ntp2763
Rp2764
(dp2765
g25
I00
sg31
I01
sg32
I00
sg19
(lp2766
g2557
ag2558
asg26
Nsg2557
g0
(g162
g2
Ntp2767
Rp2768
(dp2769
g25
I00
sg31
I01
sg32
I00
sg99
VSiStripBadChannelRcd
p2770
sbsg2558
g0
(g162
g2
Ntp2771
Rp2772
(dp2773
g25
I00
sg31
I01
sg32
I00
sg99
g36
sbsbag0
(g461
g2
Ntp2774
Rp2775
(dp2776
g25
I00
sg31
I01
sg32
I00
sg19
(lp2777
g2557
ag2558
asg26
Nsg2557
g0
(g162
g2
Ntp2778
Rp2779
(dp2780
g25
I00
sg31
I01
sg32
I00
sg99
VSiStripBadFiberRcd
p2781
sbsg2558
g0
(g162
g2
Ntp2782
Rp2783
(dp2784
g25
I00
sg31
I01
sg32
I00
sg99
g36
sbsbag0
(g461
g2
Ntp2785
Rp2786
(dp2787
g25
I00
sg31
I01
sg32
I00
sg19
(lp2788
g2557
ag2558
asg26
Nsg2557
g0
(g162
g2
Ntp2789
Rp2790
(dp2791
g25
I00
sg31
I01
sg32
I00
sg99
VSiStripBadModuleRcd
p2792
sbsg2558
g0
(g162
g2
Ntp2793
Rp2794
(dp2795
g25
I00
sg31
I01
sg32
I00
sg99
g36
sbsbag0
(g461
g2
Ntp2796
Rp2797
(dp2798
g25
I00
sg31
I01
sg32
I00
sg19
(lp2799
g2557
ag2558
asg26
Nsg2557
g0
(g162
g2
Ntp2800
Rp2801
(dp2802
g25
I00
sg31
I01
sg32
I00
sg99
VSiStripBadStripRcd
p2803
sbsg2558
g0
(g162
g2
Ntp2804
Rp2805
(dp2806
g25
I00
sg31
I01
sg32
I00
sg99
g36
sbsbatp2807
Rp2808
(dp2809
g25
I00
sg31
I01
sg32
I00
sg152
I1
sbsg2722
g0
(g158
g2
Ntp2810
Rp2811
(dp2812
g25
I00
sg31
I01
sg32
I00
sg99
I00
sbsg2723
g0
(g95
g2
Ntp2813
Rp2814
(dp2815
g25
I00
sg31
I01
sg32
I00
sg99
F0.3
sbsg2724
g0
(g158
g2
Ntp2816
Rp2817
(dp2818
g25
I00
sg31
I01
sg32
I00
sg99
I00
sbsg2725
g0
(g158
g2
Ntp2819
Rp2820
(dp2821
g25
I00
sg31
I01
sg32
I00
sg99
I00
sbsg49
g294
sg51
I55
sg52
g2716
sbsVsistripconn
p2822
g0
(g1900
g2
Ntp2823
Rp2824
(dp2825
g17
VSiStripConnectivity
p2826
sg19
(lp2827
sg25
I00
sg26
Nsg32
I00
sg49
g294
sg51
I55
sg52
g2822
sbsVstripCPEESProducer
p2828
g0
(g1900
g2
Ntp2829
Rp2830
(dp2831
g17
g2364
sg19
(lp2832
g1905
ag2366
ag2367
asg25
I00
sg26
Nsg1905
g0
(g162
g2
Ntp2833
Rp2834
(dp2835
g25
I00
sg31
I01
sg32
I00
sg99
VstripCPE
p2836
sbsg32
I00
sg2366
g0
(g162
g2
Ntp2837
Rp2838
(dp2839
g25
I00
sg31
I01
sg32
I00
sg99
VSimpleStripCPE
p2840
sbsg2367
g0
(g461
g2
Ntp2841
Rp2842
(dp2843
g25
I00
sg31
I01
sg32
I00
sg19
(lp2844
sg26
Nsbsg49
g294
sg51
I55
sg52
g2828
sbsVParabolicParametrizedMagneticFieldProducer
p2845
g0
(g1900
g2
Ntp2846
Rp2847
(dp2848
g17
VAutoParametrizedMagneticFieldProducer
p2849
sg19
(lp2850
Vversion
p2851
ag2593
aVvalueOverride
p2852
asg25
I00
sg26
Nsg2851
g0
(g162
g2
Ntp2853
Rp2854
(dp2855
g25
I00
sg31
I01
sg32
I00
sg99
VParabolic
p2856
sbsg32
I01
sg2593
g0
(g162
g2
Ntp2857
Rp2858
(dp2859
g25
I00
sg31
I00
sg32
I01
sg99
VParabolicMf
p2860
sbsg2852
g0
(g103
g2
Ntp2861
Rp2862
(dp2863
g25
I00
sg31
I01
sg32
I00
sg99
I-1
sbsg49
g294
sg51
I55
sg52
g2845
sbsVVolumeBasedMagneticFieldESProducer
p2864
g0
(g1900
g2
Ntp2865
Rp2866
(dp2867
g17
VVolumeBasedMagneticFieldESProducerFromDB
p2868
sg19
(lp2869
g2593
aVdebugBuilder
p2870
ag2852
asg25
I00
sg26
Nsg2593
g0
(g162
g2
Ntp2871
Rp2872
(dp2873
g25
I00
sg31
I00
sg32
I00
sg99
g36
sbsg32
I00
sg2870
g0
(g158
g2
Ntp2874
Rp2875
(dp2876
g25
I00
sg31
I00
sg32
I00
sg99
I00
sbsg2852
g0
(g103
g2
Ntp2877
Rp2878
(dp2879
g25
I00
sg31
I01
sg32
I00
sg99
I-1
sbsg49
g294
sg51
I55
sg52
g2864
sbssV_Process__esprefers
p2880
(dp2881
Ves_prefer_hcalHardcode
p2882
g0
(cFWCore.ParameterSet.Modules
ESPrefer
p2883
g2
Ntp2884
Rp2885
(dp2886
g17
g1207
sg19
(lp2887
sg25
I00
sg26
Nsg32
I00
sg49
g294
sg51
I91
sV_targetLabel
p2888
g1203
sg52
g2882
sbssV_Process__aliases
p2889
(dp2890
sV_Process__psets
p2891
(dp2892
VmaxLuminosityBlocks
p2893
g0
(g461
g2
Ntp2894
Rp2895
(dp2896
g25
I00
sg31
I00
sg32
I00
sg19
(lp2897
Vinput
p2898
asg26
Nsg2898
g0
(g103
g2
Ntp2899
Rp2900
(dp2901
g25
I00
sg31
I00
sg32
I00
sg99
I-1
sbsg52
g2893
sbsVoptions
p2902
g0
(g461
g2
Ntp2903
Rp2904
(dp2905
g25
I00
sg31
I00
sg32
I01
sg19
(lp2906
VnumberOfThreads
p2907
aVnumberOfStreams
p2908
aVnumberOfConcurrentRuns
p2909
aVnumberOfConcurrentLuminosityBlocks
p2910
aVeventSetup
p2911
aVaccelerators
p2912
aVwantSummary
p2913
aVfileMode
p2914
aVforceEventSetupCacheClearOnNewRun
p2915
aVthrowIfIllegalParameter
p2916
aVprintDependencies
p2917
aVdeleteNonConsumedUnscheduledModules
p2918
aVsizeOfStackForThreadsInKB
p2919
aVRethrow
p2920
aVSkipEvent
p2921
aVFailPath
p2922
aVIgnoreCompletely
p2923
aVcanDeleteEarly
p2924
aVdumpOptions
p2925
aVallowUnscheduled
p2926
aVemptyRunLumiMode
p2927
aVmakeTriggerResults
p2928
asg26
Nsg2907
g0
(g467
g2
Ntp2929
Rp2930
(dp2931
g25
I00
sg31
I00
sg32
I00
sg99
I1
sbsg2908
g0
(g467
g2
Ntp2932
Rp2933
(dp2934
g25
I00
sg31
I00
sg32
I00
sg99
I0
sbsg2909
g0
(g467
g2
Ntp2935
Rp2936
(dp2937
g25
I00
sg31
I00
sg32
I00
sg99
I1
sbsg2910
g0
(g467
g2
Ntp2938
Rp2939
(dp2940
g25
I00
sg31
I00
sg32
I00
sg99
I0
sbsg2911
g0
(g461
g2
Ntp2941
Rp2942
(dp2943
g25
I00
sg31
I00
sg32
I00
sg19
(lp2944
VnumberOfConcurrentIOVs
p2945
aVforceNumberOfConcurrentIOVs
p2946
asg26
Nsg2945
g0
(g467
g2
Ntp2947
Rp2948
(dp2949
g25
I00
sg31
I00
sg32
I00
sg99
I0
sbsg2946
g0
(g461
g2
Ntp2950
Rp2951
(dp2952
g25
I00
sg31
I00
sg32
I00
sg19
(lp2953
sg26
g0
(cFWCore.ParameterSet.Types
_RequiredParameter
p2954
g2
Ntp2955
Rp2956
(dp2957
g25
I00
sg31
I00
sg32
I00
sg690
g467
sg709
Nsbsbsbsg2912
g0
(g146
g147
(lp2958
V*
p2959
atp2960
Rp2961
(dp2962
g25
I00
sg31
I00
sg32
I00
sg152
I1
sbsg2913
g0
(g158
g2
Ntp2963
Rp2964
(dp2965
g25
I00
sg31
I00
sg32
I00
sg99
I01
sbsg2914
g0
(g162
g2
Ntp2966
Rp2967
(dp2968
g25
I00
sg31
I00
sg32
I00
sg99
VFULLMERGE
p2969
sbsg2915
g0
(g158
g2
Ntp2970
Rp2971
(dp2972
g25
I00
sg31
I00
sg32
I00
sg99
I00
sbsg2916
g0
(g158
g2
Ntp2973
Rp2974
(dp2975
g25
I00
sg31
I00
sg32
I00
sg99
I01
sbsg2917
g0
(g158
g2
Ntp2976
Rp2977
(dp2978
g25
I00
sg31
I00
sg32
I00
sg99
I00
sbsg2918
g0
(g158
g2
Ntp2979
Rp2980
(dp2981
g25
I00
sg31
I00
sg32
I00
sg99
I01
sbsg2919
g0
(g686
g2
Ntp2982
Rp2983
(dp2984
g25
I00
sg31
I00
sg32
I00
sg690
g467
sg709
Nsbsg2920
g0
(g146
g147
(lp2985
tp2986
Rp2987
(dp2988
g25
I00
sg31
I00
sg32
I00
sg152
I1
sbsg2921
g0
(g146
g147
(lp2989
tp2990
Rp2991
(dp2992
g25
I00
sg31
I00
sg32
I00
sg152
I1
sbsg2922
g0
(g146
g147
(lp2993
tp2994
Rp2995
(dp2996
g25
I00
sg31
I00
sg32
I00
sg152
I1
sbsg2923
g0
(g146
g147
(lp2997
tp2998
Rp2999
(dp3000
g25
I00
sg31
I00
sg32
I00
sg152
I1
sbsg2924
g0
(g146
g147
(lp3001
tp3002
Rp3003
(dp3004
g25
I00
sg31
I00
sg32
I00
sg152
I1
sbsg2925
g0
(g158
g2
Ntp3005
Rp3006
(dp3007
g25
I00
sg31
I00
sg32
I00
sg99
I00
sbsg2926
g0
(g158
g2
Ntp3008
Rp3009
(dp3010
g25
I00
sg31
I00
sg32
I00
sg99
I00
sbsg2927
g0
(cFWCore.ParameterSet.Types
_ObsoleteParameter
p3011
g2
Ntp3012
Rp3013
(dp3014
g25
I00
sg31
I00
sg32
I00
sg690
g162
sg709
Nsbsg2928
g0
(g3011
g2
Ntp3015
Rp3016
(dp3017
g25
I00
sg31
I00
sg32
I00
sg690
g158
sg709
Nsbsg52
g2902
sbsVCondDB
p3018
g0
(g461
g2
Ntp3019
Rp3020
(dp3021
g25
I00
sg31
I01
sg32
I00
sg19
(lp3022
g960
ag961
asg26
Nsg960
g0
(g461
g2
Ntp3023
Rp3024
(dp3025
g25
I00
sg31
I01
sg32
I00
sg19
(lp3026
g976
ag977
ag978
ag979
ag980
asg26
Nsg976
g0
(g162
g2
Ntp3027
Rp3028
(dp3029
g25
I00
sg31
I00
sg32
I00
sg99
g36
sbsg977
g0
(g103
g2
Ntp3030
Rp3031
(dp3032
g25
I00
sg31
I00
sg32
I00
sg99
I0
sbsg978
g0
(g162
g2
Ntp3033
Rp3034
(dp3035
g25
I00
sg31
I00
sg32
I00
sg99
g36
sbsg979
g0
(g103
g2
Ntp3036
Rp3037
(dp3038
g25
I00
sg31
I00
sg32
I00
sg99
I0
sbsg980
g0
(g103
g2
Ntp3039
Rp3040
(dp3041
g25
I00
sg31
I00
sg32
I00
sg99
I0
sbsbsg961
g0
(g162
g2
Ntp3042
Rp3043
(dp3044
g25
I00
sg31
I01
sg32
I00
sg99
g36
sbsg52
g3018
sbsg1217
g1269
sVmaxEvents
p3045
g0
(g461
g2
Ntp3046
Rp3047
(dp3048
g25
I00
sg31
I00
sg32
I01
sg19
(lp3049
g2898
ag888
asg26
Nsg2898
g0
(g103
g2
Ntp3050
Rp3051
(dp3052
g25
I00
sg31
I00
sg32
I00
sg99
I-1
sbsg888
g0
(g686
g2
Ntp3053
Rp3054
(dp3055
g25
I00
sg31
I00
sg32
I00
sg690
g0
(cFWCore.ParameterSet.Types
_AllowedParameterTypes
p3056
g2
Ntp3057
Rp3058
(dp3059
V_AllowedParameterTypes__types
p3060
(g103
g461
tp3061
sV_AllowedParameterTypes__value
p3062
NsV__name__
p3063
Vallowed(cms.int32,cms.PSet)
p3064
sbsg709
Nsbsg52
g3045
sbssV_Process__vpsets
p3065
(dp3066
sV_cloneToObjectDict
p3067
(dp3068
L139715387549440L
g0
(g461
g2
Ntp3069
Rp3070
(dp3071
g25
I00
sg31
I00
sg32
I01
sg19
(lp3072
g2907
ag2908
ag2909
ag2910
ag2911
ag2912
ag2913
ag2914
ag2915
ag2916
ag2917
ag2918
ag2919
ag2920
ag2921
ag2922
ag2923
ag2924
ag2925
ag2926
ag2927
ag2928
asg26
Nsg2907
g0
(g467
g2
Ntp3073
Rp3074
(dp3075
g25
I00
sg31
I00
sg32
I00
sg99
I1
sbsg2908
g0
(g467
g2
Ntp3076
Rp3077
(dp3078
g25
I00
sg31
I00
sg32
I00
sg99
I0
sbsg2909
g0
(g467
g2
Ntp3079
Rp3080
(dp3081
g25
I00
sg31
I00
sg32
I00
sg99
I1
sbsg2910
g0
(g467
g2
Ntp3082
Rp3083
(dp3084
g25
I00
sg31
I00
sg32
I00
sg99
I0
sbsg2911
g0
(g461
g2
Ntp3085
Rp3086
(dp3087
g25
I00
sg31
I00
sg32
I00
sg19
(lp3088
g2945
ag2946
asg26
Nsg2945
g0
(g467
g2
Ntp3089
Rp3090
(dp3091
g25
I00
sg31
I00
sg32
I00
sg99
I0
sbsg2946
g0
(g461
g2
Ntp3092
Rp3093
(dp3094
g25
I00
sg31
I00
sg32
I00
sg19
(lp3095
sg26
g0
(g2954
g2
Ntp3096
Rp3097
(dp3098
g25
I00
sg31
I00
sg32
I00
sg690
g467
sg709
Nsbsbsbsg2912
g0
(g146
g147
(lp3099
g2959
atp3100
Rp3101
(dp3102
g25
I00
sg31
I00
sg32
I00
sg152
I1
sbsg2913
g0
(g158
g2
Ntp3103
Rp3104
(dp3105
g25
I00
sg31
I00
sg32
I00
sg99
I00
sbsg2914
g0
(g162
g2
Ntp3106
Rp3107
(dp3108
g25
I00
sg31
I00
sg32
I00
sg99
g2969
sbsg2915
g0
(g158
g2
Ntp3109
Rp3110
(dp3111
g25
I00
sg31
I00
sg32
I00
sg99
I00
sbsg2916
g0
(g158
g2
Ntp3112
Rp3113
(dp3114
g25
I00
sg31
I00
sg32
I00
sg99
I01
sbsg2917
g0
(g158
g2
Ntp3115
Rp3116
(dp3117
g25
I00
sg31
I00
sg32
I00
sg99
I00
sbsg2918
g0
(g158
g2
Ntp3118
Rp3119
(dp3120
g25
I00
sg31
I00
sg32
I00
sg99
I01
sbsg2919
g0
(g686
g2
Ntp3121
Rp3122
(dp3123
g25
I00
sg31
I00
sg32
I00
sg690
g467
sg709
Nsbsg2920
g0
(g146
g147
(lp3124
tp3125
Rp3126
(dp3127
g25
I00
sg31
I00
sg32
I00
sg152
I1
sbsg2921
g0
(g146
g147
(lp3128
tp3129
Rp3130
(dp3131
g25
I00
sg31
I00
sg32
I00
sg152
I1
sbsg2922
g0
(g146
g147
(lp3132
tp3133
Rp3134
(dp3135
g25
I00
sg31
I00
sg32
I00
sg152
I1
sbsg2923
g0
(g146
g147
(lp3136
tp3137
Rp3138
(dp3139
g25
I00
sg31
I00
sg32
I00
sg152
I1
sbsg2924
g0
(g146
g147
(lp3140
tp3141
Rp3142
(dp3143
g25
I00
sg31
I00
sg32
I00
sg152
I1
sbsg2925
g0
(g158
g2
Ntp3144
Rp3145
(dp3146
g25
I00
sg31
I00
sg32
I00
sg99
I00
sbsg2926
g0
(g3011
g2
Ntp3147
Rp3148
(dp3149
g25
I00
sg31
I00
sg32
I00
sg690
g158
sg709
Nsbsg2927
g0
(g3011
g2
Ntp3150
Rp3151
(dp3152
g25
I00
sg31
I00
sg32
I00
sg690
g162
sg709
Nsbsg2928
g0
(g3011
g2
Ntp3153
Rp3154
(dp3155
g25
I00
sg31
I00
sg32
I00
sg690
g158
sg709
Nsbsg52
NsbsL139715388981104L
g0
(g461
g2
Ntp3156
Rp3157
(dp3158
g25
I00
sg31
I00
sg32
I01
sg19
(lp3159
g2898
ag888
asg26
Nsg2898
g0
(g686
g2
Ntp3160
Rp3161
(dp3162
g25
I00
sg31
I00
sg32
I00
sg690
g103
sg709
Nsbsg888
g0
(g686
g2
Ntp3163
Rp3164
(dp3165
g25
I00
sg31
I00
sg32
I00
sg690
g0
(g3056
g2
Ntp3166
Rp3167
(dp3168
g3060
(g103
g461
tp3169
sg3062
Nsg3063
Vallowed(cms.int32,cms.PSet)
p3170
sbsg709
Nsbsg52
NsbsL139715394528688L
g2895
sL139715388977600L
g2904
sL139715390566160L
g1902
sL139715393045312L
g1912
sL139715394104528L
g1956
sL139715387799584L
g1973
sL139715387699152L
g1978
sL139715387249856L
g1986
sL139715387251104L
g1991
sL139715387156608L
g1999
sL139715387281712L
g2036
sL139715387282144L
g2044
sL139715387283200L
g2049
sL139715387282384L
g2057
sL139715387797712L
g2065
sL139715387158048L
g2075
sL139715387282240L
g2080
sL139715394104816L
g2085
sL139715387799824L
g2093
sL139715393045072L
g2098
sL139715387156704L
g2109
sL139715389647936L
g2118
sL139715387250816L
g2127
sL139715387251680L
g934
sL139715387254048L
g2135
sL139715387253136L
g2146
sL139715387252352L
g2155
sL139715387249712L
g2164
sL139715387252640L
g2181
sL139715387252208L
g2218
sL139715387251776L
g2248
sL139715387800688L
g2267
sL139715387158192L
g2279
sL139715387155744L
g2296
sL139715387799536L
g2311
sL139715394400992L
g2320
sL139715388363632L
g3020
sL139715387775968L
g2328
sL139715387775440L
g2337
sL139715388365552L
g956
sL139715389006032L
g1269
sL139715389007808L
g1035
sL139715385565968L
g2345
sL139715385548656L
g2362
sL139715385597904L
g2434
sL139715385627168L
g2499
sL139715391032240L
g1205
sL139715391032000L
g2885
sL139715387773712L
g2515
sL139715385594544L
g2530
sL139715385566928L
g2539
sL139715385546112L
g2582
sL139715391712800L
g2626
sL139715385545200L
g2679
sL139715385568368L
g2718
sL139715394113440L
g2824
sL139715385547600L
g2830
sL139715385630528L
g2847
sL139715385629088L
g2866
sL139715385209568L
g15
sL139715385241808L
g55
sL139715385242240L
g189
sL139715385243008L
g612
sL139715385252832L
g304
sL139715385252880L
g474
sL139715385253744L
g629
sL139715387265520L
g584
sL139715385380000L
g3047
sL139715385380240L
g601
ssV_Process__InExtendCall
p3171
I00
sV_Process__partialschedules
p3172
(dp3173
sV_Process__isStrict
p3174
I00
sV_Process__modifiers
p3175
(tsV_Process__accelerators
p3176
(dp3177
sg2893
g2895
sg671
g674
sg2902
g2904
sg1899
g1902
sg1910
g1912
sg1954
g1956
sg1971
g1973
sg1976
g1978
sg1984
g1986
sg1989
g1991
sg1997
g1999
sg2034
g2036
sg2042
g2044
sg2047
g2049
sg2055
g2057
sg2063
g2065
sg2073
g2075
sg2078
g2080
sg2083
g2085
sg2091
g2093
sg2096
g2098
sg2107
g2109
sg2116
g2118
sg2125
g2127
sg931
g934
sg2133
g2135
sg2144
g2146
sg2153
g2155
sg2162
g2164
sg2179
g2181
sg2216
g2218
sg2246
g2248
sg2265
g2267
sg2277
g2279
sg2294
g2296
sg2309
g2311
sg2318
g2320
sg3018
g3020
sg2326
g2328
sg2335
g2337
sg954
g956
sg1217
g1269
sg1033
g1035
sg2343
g2345
sg2360
g2362
sg2432
g2434
sg2497
g2499
sg1203
g1205
sg2882
g2885
sg2513
g2515
sg2528
g2530
sg2537
g2539
sg2580
g2582
sg2624
g2626
sg2677
g2679
sg2716
g2718
sg2822
g2824
sg2828
g2830
sg2845
g2847
sg2864
g2866
sg12
g15
sg53
g55
sg187
g189
sg627
g612
sg301
g304
sg472
g474
sg640
g629
sVsource
p3178
g284
sg286
g284
sg581
g584
sg3045
g3047
sg598
g601
sg920
g922
sb.